Microchip MPLAB XC8 Compiler V2.31

Linker command line:

-W-3 --edf=/opt/microchip/xc8/v2.31/pic/dat/en_msgs.txt -cn \
  -h+dist/default/production/spd_16f18326_v1.001.X.production.sym \
  --cmf=dist/default/production/spd_16f18326_v1.001.X.production.cmf -z \
  -Q16F18326 -o/tmp/xcXhPkMel --defsym=__MPLAB_BUILD=1 \
  -Mdist/default/production/spd_16f18326_v1.001.X.production.map -E1 \
  -ver=XC8 Compiler --acfsm=1493 -ASTACK=02154h-027EFh -pstack=STACK \
  -ACODE=00h-07FFhx8 -ASTRCODE=00h-03FFFh -ASTRING=00h-0FFhx64 \
  -ACONST=00h-0FFhx64 -AENTRY=00h-0FFhx64 -ACOMMON=070h-07Fh \
  -ABANK0=020h-06Fh -ABANK1=0A0h-0EFh -ABANK2=0120h-016Fh \
  -ABANK3=01A0h-01EFh -ABANK4=0220h-026Fh -ABANK5=02A0h-02EFh \
  -ABANK6=0320h-036Fh -ABANK7=03A0h-03EFh -ABANK8=0420h-046Fh \
  -ABANK9=04A0h-04EFh -ABANK10=0520h-056Fh -ABANK11=05A0h-05EFh \
  -ABANK12=0620h-066Fh -ABANK13=06A0h-06EFh -ABANK14=0720h-076Fh \
  -ABANK15=07A0h-07EFh -ABANK16=0820h-086Fh -ABANK17=08A0h-08EFh \
  -ABANK18=0920h-096Fh -ABANK19=09A0h-09EFh -ABANK20=0A20h-0A6Fh \
  -ABANK21=0AA0h-0AEFh -ABANK22=0B20h-0B6Fh -ABANK23=0BA0h-0BEFh \
  -ABANK24=0C20h-0C6Fh -ABANK25=0CA0h-0CBFh -ABIGRAM=02000h-027EFh \
  -ARAM=020h-06Fh,0A0h-0EFh,0120h-016Fh,01A0h-01EFh,0220h-026Fh,02A0h-02EFh,0320h-036Fh,03A0h-03EFh,0420h-046Fh,04A0h-04EFh,0520h-056Fh,05A0h-05EFh,0620h-066Fh,06A0h-06EFh,0720h-076Fh,07A0h-07EFh,0820h-086Fh,08A0h-08EFh,0920h-096Fh,09A0h-09EFh,0A20h-0A6Fh,0AA0h-0AEFh,0B20h-0B6Fh,0BA0h-0BEFh,0C20h-0C6Fh,0CA0h-0CBFh \
  -AABS1=020h-07Fh,0A0h-0EFh,0120h-016Fh,01A0h-01EFh,0220h-026Fh,02A0h-02EFh,0320h-036Fh,03A0h-03EFh,0420h-046Fh,04A0h-04EFh,0520h-056Fh,05A0h-05EFh,0620h-066Fh,06A0h-06EFh,0720h-076Fh,07A0h-07EFh,0820h-086Fh,08A0h-08EFh,0920h-096Fh,09A0h-09EFh,0A20h-0A6Fh,0AA0h-0AEFh,0B20h-0B6Fh,0BA0h-0BEFh,0C20h-0C6Fh,0CA0h-0CBFh \
  -ASFR0=00h-01Fh -ASFR1=080h-09Fh -ASFR2=0100h-011Fh -ASFR3=0180h-019Fh \
  -ASFR4=0200h-021Fh -ASFR5=0280h-029Fh -ASFR6=0300h-031Fh \
  -ASFR7=0380h-039Fh -ASFR8=0400h-041Fh -ASFR9=0480h-049Fh \
  -ASFR10=0500h-051Fh -ASFR11=0580h-059Fh -ASFR12=0600h-061Fh \
  -ASFR13=0680h-069Fh -ASFR14=0700h-071Fh -ASFR15=0780h-079Fh \
  -ASFR16=0800h-081Fh -ASFR17=0880h-089Fh -ASFR18=0900h-091Fh \
  -ASFR19=0980h-099Fh -ASFR20=0A00h-0A1Fh -ASFR21=0A80h-0A9Fh \
  -ASFR22=0B00h-0B1Fh -ASFR23=0B80h-0B9Fh -ASFR24=0C00h-0C1Fh \
  -ASFR25=0C80h-0C9Fh -ASFR26=0D00h-0D6Fh -ASFR27=0D80h-0DEFh \
  -ASFR28=0E00h-0E6Fh -ASFR29=0E80h-0EEFh -ASFR30=0F00h-0F6Fh \
  -ASFR31=0F80h-0FEFh -ACONFIG=08007h-0800Ah -DCONFIG=2 \
  -AIDLOC=08000h-08003h -DIDLOC=2 -AEEDATA=00h-0FFh/0F000h \
  -peeprom_data=EEDATA -DEEDATA=2 -DCODE=2 -DSTRCODE=2 -DSTRING=2 -DCONST=2 \
  -DENTRY=2 -preset_vec=00h,intentry=04h,init,end_init -ppowerup=CODE \
  -pcinit=CODE -pfunctab=ENTRY -k /tmp/xcXdAnNhm.o \
  dist/default/production/spd_16f18326_v1.001.X.production.o 

Object code version is 3.11

Machine type is 16F18326



                Name                               Link     Load   Length Selector   Space Scale
/tmp/xcXdAnNhm.o
                end_init                             44       44        2        8       0
                reset_vec                             0        0        2        0       0
                config                             8007     8007        4        0       4
                idloc                              8000     8000        4        0       5
dist/default/production/spd_16f18326_v1.001.X.production.o
                cinit                                46       46       36        8       0
                intentry                              4        4       40        8       0
                config                             8007     8007        4        0       4
                idloc                              8000     8000        4        0       5
                codecov_info                          0        0     3434        0       6
                codecov_info_hdr                      0        0       10        0       6
                text114                            27A0     27A0        E     4F40       0
                text113                            2681     2681        8     4D02       0
                text112                            1001     1001       46     2002       0
                text111                            1B98     1B98       2B     3730       0
                text110                            1A5A     1A5A       1E     34B4       0
                text109                            26C7     26C7        B     4D8E       0
                text108                            19CC     19CC       1C     3398       0
                text107                            1913     1913       19     3226       0
                text106                            26D2     26D2        B     4DA4       0
                text105                            18FB     18FB       18     31F6       0
                text104                            267A     267A        7     4CF4       0
                text103                            1ABB     1ABB       23     3576       0
                text102                             2D3      2D3      257        8       0
                text101                            10BA     10BA       75     2174       0
                text100                            1236     1236       AC     246C       0
                text99                             2740     2740        C     4E80       0
                text98                             16FF     16FF      101     2DFE       0
                text97                             1528     1528       EA     2A50       0
                text96                             192C     192C       1A     3258       0
                text95                             1946     1946       1A     328C       0
                text94                             1FA1     1FA1       5F     3F42       0
                text93                              CFE      CFE      172     19FC       0
                text92                              709      709       F2        8       0
                text91                             1C71     1C71       31     38E2       0
                text90                             1856     1856       13     30AC       0
                text89                             1451     1451       D7     28A2       0
                text88                             266C     266C        3     4CD8       0
                text87                             19E8     19E8       1C     33D0       0
                text86                             181A     181A        7     3034       0
                text85                             2689     2689        8     4D12       0
                text84                             18B9     18B9       16     3172       0
                text83                             2691     2691        8     4D22       0
                text82                             138F     138F       C2     271E       0
                text81                             266F     266F        3     4CDE       0
                text80                             187C     187C       14     30F8       0
                text78                             1A78     1A78       21     34F0       0
                text77                             26DD     26DD        B     4DBA       0
                text76                             26E8     26E8        B     4DD0       0
                text75                             26F3     26F3        B     4DE6       0
                text74                             26FE     26FE        B     4DFC       0
                text73                             1B4A     1B4A       27     3694       0
                text72                             2709     2709        B     4E12       0
                text71                             1CD4     1CD4       33     39A8       0
                text70                             27BD     27BD       10     4F7A       0
                text69                             274C     274C        C     4E98       0
                text68                             2758     2758        C     4EB0       0
                text67                             2714     2714        B     4E28       0
                text66                             1A20     1A20       1D     3440       0
                text65                             271F     271F        B     4E3E       0
                text64                             1960     1960       1B     32C0       0
                text63                             272A     272A        B     4E54       0
                text62                             1890     1890       14     3120       0
                text61                             18A4     18A4       15     3148       0
                text60                             2764     2764        C     4EC8       0
                text59                             2770     2770        C     4EE0       0
                text58                              7FB      7FB        5        8       0
                text57                             1C44     1C44       2D     3888       0
                text56                             26B3     26B3        A     4D66       0
                text55                              85D      85D      105     10BA       0
                text54                             1612     1612       ED     2C24       0
                text53                             1A04     1A04       1C     3408       0
                text52                             27CD     27CD       11     4F9A       0
                text51                             26A1     26A1        9     4D42       0
                text50                             1DB9     1DB9       49     3B72       0
                text49                             1BC3     1BC3       2B     3786       0
                text48                             197B     197B       1B     32F6       0
                text47                             1F43     1F43       5E     3E86       0
                jmp_tab__pad                       2299     2299        2     44F6       0
                text46                              B8D      B8D      171     171A       0
                jmp_tab__dtoa                      2297     2297        2     44F6       0
                text45                              962      962      109     12C4       0
                jmp_tab__vfpfcnvrt                 2295     2295        2     44F6       0
                text44                             1D07     1D07       36     3A0E       0
                jmp_tab__vfprintf                  2293     2293        2     44F6       0
                text43                             18CF     18CF       16     319E       0
                text42                             1A99     1A99       22     3532       0
                text41                             1047     1047       73     208E       0
                text40                             277C     277C        C     4EF8       0
                text39                             1A3D     1A3D       1D     347A       0
                text38                             1996     1996       1B     332C       0
                text37                             18E5     18E5       16     31CA       0
                text36                             2672     2672        4     4CE4       0
                text35                             1E02     1E02       49     3C04       0
                text34                             1B01     1B01       24     3602       0
                text33                               7C       7C      257        8       0
                text32                             112F     112F       75     225E       0
                text31                             12E2     12E2       AD     25C4       0
                text30                             1D3D     1D3D       37     3A7A       0
                text29                             1D74     1D74       45     3AE8       0
                text28                             1BEE     1BEE       2B     37DC       0
                text27                             1EED     1EED       56     3DDA       0
                text26                             1E9A     1E9A       53     3D34       0
                text25                             27DE     27DE       11     4FBC       0
                text24                             1ADE     1ADE       23     35BC       0
                text23                             1832     1832       12     3064       0
                text22                             2735     2735        B     4E6A       0
                text21                             27EF     27EF       11     4FDE       0
                text20                             26BD     26BD        A     4D7A       0
                text19                             2788     2788        C     4F10       0
                text18                             2794     2794        C     4F28       0
                text17                             1B71     1B71       27     36E2       0
                text16                             2676     2676        4     4CEC       0
                text15                             1869     1869       13     30D2       0
                text14                             1821     1821       11     3042       0
                text13                             1E4B     1E4B       4F     3C96       0
                text12                             27AE     27AE        F     4F5C       0
                jmp_tab__eeprom_read_error_han     2291     2291        2     44F6       0
                text11                              E70      E70      190     1CE0       0
                text10                             1B25     1B25       25     364A       0
                text9                               A6B      A6B      122     14D6       0
                jmp_tab__read_correction           228D     228D        4     44F6       0
                text8                              11A4     11A4       92     2348       0
                text7                              1C19     1C19       2B     3832       0
                text6                              1CA2     1CA2       32     3944       0
                text5                              26AA     26AA        9     4D54       0
                text4                              1844     1844       12     3088       0
                text3                              19B1     19B1       1B     3362       0
                text2                              2699     2699        8     4D32       0
                text1                               806      806       57     100C       0
                jmp_tab__puts                      1800     1800       1A     3000       0
                jmp_tab__write_correction          227B     227B        A     44F6       0
                jmp_tab__button_check              2289     2289        4     44F6       0
                jmp_tab__spd_init                     2        2        2        4       0
                jmp_tab__printf                    2285     2285        4     44F6       0
                maintext                            52A      52A      1DF        8       0
                cstackBANK0                          20       20       4E       20       1
                cstackCOMMON                         70       70        E       70       1
                cstackBANK1                          A0       A0       44       A0       1
                cstackBANK2                         129      129       2E      120       1
                cstackBANK4                         220      220       14      220       1
                clrtext                             800      800        6     1000       0
                bssBANK3                            1A0      1A0       34      1A0       1
                bitbssBANK3                         EA0      1D4       1F      1A0       1     8
                dataBANK2                           16F      16F        1      120       1
                bssBANK2                            157      157       16      120       1
                bitbssBANK2                         900      120       48      120       1     8
                bssBANK1                             EC       EC        4       A0       1
                bitbssBANK1                         720       E4       40       A0       1     8
                bitbssBANK0                         370       6E       10       20       1     8
                stringtext21                       280D     280D        C     5000       0
                stringtext20                       2800     2800        D     5000       0
                stringtext19                       2264     2264       17     4000       0
                stringtext18                       224B     224B       19     4000       0
                stringtext17                       2230     2230       1B     4000       0
                stringtext16                       2214     2214       1C     4000       0
                stringtext15                       21F7     21F7       1D     4000       0
                stringtext14                       21DA     21DA       1D     4000       0
                stringtext13                       21BD     21BD       1D     4000       0
                stringtext12                       219F     219F       1E     4000       0
                stringtext11                       2180     2180       1F     4000       0
                stringtext10                       215F     215F       21     4000       0
                stringtext9                        213E     213E       21     4000       0
                stringtext8                        211D     211D       21     4000       0
                stringtext7                        20FB     20FB       22     4000       0
                stringtext6                        20D7     20D7       24     4000       0
                stringtext5                        20B1     20B1       26     4000       0
                stringtext4                        208A     208A       27     4000       0
                stringtext3                        205E     205E       2C     4000       0
                stringtext2                        2030     2030       2E     4000       0
                stringtext1                        2000     2000       30     4000       0
                nvBANK3                             1D8      1D8       10      1A0       1
                nvBANK2                             16D      16D        2      120       1
                idataBANK2                         1000     1000        1     1CE0       0

TOTAL           Name                               Link     Load   Length     Space
        CLASS   STACK          

        CLASS   CODE           
                end_init                             44       44        2         0
                cinit                                46       46       36         0
                intentry                              4        4       40         0
                reset_vec                             0        0        2         0
                text114                            27A0     27A0        E         0
                text113                            2681     2681        8         0
                text112                            1001     1001       46         0
                text111                            1B98     1B98       2B         0
                text110                            1A5A     1A5A       1E         0
                text109                            26C7     26C7        B         0
                text108                            19CC     19CC       1C         0
                text107                            1913     1913       19         0
                text106                            26D2     26D2        B         0
                text105                            18FB     18FB       18         0
                text104                            267A     267A        7         0
                text103                            1ABB     1ABB       23         0
                text102                             2D3      2D3      257         0
                text101                            10BA     10BA       75         0
                text100                            1236     1236       AC         0
                text99                             2740     2740        C         0
                text98                             16FF     16FF      101         0
                text97                             1528     1528       EA         0
                text96                             192C     192C       1A         0
                text95                             1946     1946       1A         0
                text94                             1FA1     1FA1       5F         0
                text93                              CFE      CFE      172         0
                text92                              709      709       F2         0
                text91                             1C71     1C71       31         0
                text90                             1856     1856       13         0
                text89                             1451     1451       D7         0
                text88                             266C     266C        3         0
                text87                             19E8     19E8       1C         0
                text86                             181A     181A        7         0
                text85                             2689     2689        8         0
                text84                             18B9     18B9       16         0
                text83                             2691     2691        8         0
                text82                             138F     138F       C2         0
                text81                             266F     266F        3         0
                text80                             187C     187C       14         0
                text78                             1A78     1A78       21         0
                text77                             26DD     26DD        B         0
                text76                             26E8     26E8        B         0
                text75                             26F3     26F3        B         0
                text74                             26FE     26FE        B         0
                text73                             1B4A     1B4A       27         0
                text72                             2709     2709        B         0
                text71                             1CD4     1CD4       33         0
                text70                             27BD     27BD       10         0
                text69                             274C     274C        C         0
                text68                             2758     2758        C         0
                text67                             2714     2714        B         0
                text66                             1A20     1A20       1D         0
                text65                             271F     271F        B         0
                text64                             1960     1960       1B         0
                text63                             272A     272A        B         0
                text62                             1890     1890       14         0
                text61                             18A4     18A4       15         0
                text60                             2764     2764        C         0
                text59                             2770     2770        C         0
                text58                              7FB      7FB        5         0
                text57                             1C44     1C44       2D         0
                text56                             26B3     26B3        A         0
                text55                              85D      85D      105         0
                text54                             1612     1612       ED         0
                text53                             1A04     1A04       1C         0
                text52                             27CD     27CD       11         0
                text51                             26A1     26A1        9         0
                text50                             1DB9     1DB9       49         0
                text49                             1BC3     1BC3       2B         0
                text48                             197B     197B       1B         0
                text47                             1F43     1F43       5E         0
                text46                              B8D      B8D      171         0
                text45                              962      962      109         0
                text44                             1D07     1D07       36         0
                text43                             18CF     18CF       16         0
                text42                             1A99     1A99       22         0
                text41                             1047     1047       73         0
                text40                             277C     277C        C         0
                text39                             1A3D     1A3D       1D         0
                text38                             1996     1996       1B         0
                text37                             18E5     18E5       16         0
                text36                             2672     2672        4         0
                text35                             1E02     1E02       49         0
                text34                             1B01     1B01       24         0
                text33                               7C       7C      257         0
                text32                             112F     112F       75         0
                text31                             12E2     12E2       AD         0
                text30                             1D3D     1D3D       37         0
                text29                             1D74     1D74       45         0
                text28                             1BEE     1BEE       2B         0
                text27                             1EED     1EED       56         0
                text26                             1E9A     1E9A       53         0
                text25                             27DE     27DE       11         0
                text24                             1ADE     1ADE       23         0
                text23                             1832     1832       12         0
                text22                             2735     2735        B         0
                text21                             27EF     27EF       11         0
                text20                             26BD     26BD        A         0
                text19                             2788     2788        C         0
                text18                             2794     2794        C         0
                text17                             1B71     1B71       27         0
                text16                             2676     2676        4         0
                text15                             1869     1869       13         0
                text14                             1821     1821       11         0
                text13                             1E4B     1E4B       4F         0
                text12                             27AE     27AE        F         0
                text11                              E70      E70      190         0
                text10                             1B25     1B25       25         0
                text9                               A6B      A6B      122         0
                text8                              11A4     11A4       92         0
                text7                              1C19     1C19       2B         0
                text6                              1CA2     1CA2       32         0
                text5                              26AA     26AA        9         0
                text4                              1844     1844       12         0
                text3                              19B1     19B1       1B         0
                text2                              2699     2699        8         0
                text1                               806      806       57         0
                maintext                            52A      52A      1DF         0
                clrtext                             800      800        6         0
                idataBANK2                         1000     1000        1         0

        CLASS   STRCODE        
                stringtext21                       280D     280D        C         0
                stringtext20                       2800     2800        D         0
                stringtext19                       2264     2264       17         0
                stringtext18                       224B     224B       19         0
                stringtext17                       2230     2230       1B         0
                stringtext16                       2214     2214       1C         0
                stringtext15                       21F7     21F7       1D         0
                stringtext14                       21DA     21DA       1D         0
                stringtext13                       21BD     21BD       1D         0
                stringtext12                       219F     219F       1E         0
                stringtext11                       2180     2180       1F         0
                stringtext10                       215F     215F       21         0
                stringtext9                        213E     213E       21         0
                stringtext8                        211D     211D       21         0
                stringtext7                        20FB     20FB       22         0
                stringtext6                        20D7     20D7       24         0
                stringtext5                        20B1     20B1       26         0
                stringtext4                        208A     208A       27         0
                stringtext3                        205E     205E       2C         0
                stringtext2                        2030     2030       2E         0
                stringtext1                        2000     2000       30         0

        CLASS   STRING         

        CLASS   CONST          

        CLASS   ENTRY          
                jmp_tab__pad                       2299     2299        2         0
                jmp_tab__dtoa                      2297     2297        2         0
                jmp_tab__vfpfcnvrt                 2295     2295        2         0
                jmp_tab__vfprintf                  2293     2293        2         0
                jmp_tab__eeprom_read_error_han     2291     2291        2         0
                jmp_tab__read_correction           228D     228D        4         0
                jmp_tab__puts                      1800     1800       1A         0
                jmp_tab__write_correction          227B     227B        A         0
                jmp_tab__button_check              2289     2289        4         0
                jmp_tab__spd_init                     2        2        2         0
                jmp_tab__printf                    2285     2285        4         0

        CLASS   COMMON         
                cstackCOMMON                         70       70        E         1

        CLASS   BANK0          
                cstackBANK0                          20       20       4E         1
                bitbssBANK0                         370       6E       10         1

        CLASS   BANK1          
                cstackBANK1                          A0       A0       44         1
                bssBANK1                             EC       EC        4         1
                bitbssBANK1                         720       E4       40         1

        CLASS   BANK2          
                cstackBANK2                         129      129       2E         1
                dataBANK2                           16F      16F        1         1
                bssBANK2                            157      157       16         1
                bitbssBANK2                         900      120       48         1
                nvBANK2                             16D      16D        2         1

        CLASS   BANK3          
                bssBANK3                            1A0      1A0       34         1
                bitbssBANK3                         EA0      1D4       1F         1
                nvBANK3                             1D8      1D8       10         1

        CLASS   BANK4          
                cstackBANK4                         220      220       14         1

        CLASS   BANK5          

        CLASS   BANK6          

        CLASS   BANK7          

        CLASS   BANK8          

        CLASS   BANK9          

        CLASS   BANK10         

        CLASS   BANK11         

        CLASS   BANK12         

        CLASS   BANK13         

        CLASS   BANK14         

        CLASS   BANK15         

        CLASS   BANK16         

        CLASS   BANK17         

        CLASS   BANK18         

        CLASS   BANK19         

        CLASS   BANK20         

        CLASS   BANK21         

        CLASS   BANK22         

        CLASS   BANK23         

        CLASS   BANK24         

        CLASS   BANK25         

        CLASS   BIGRAM         

        CLASS   RAM            

        CLASS   ABS1           
                abs_s1                               7E       7E        2         1

        CLASS   SFR0           

        CLASS   SFR1           

        CLASS   SFR2           

        CLASS   SFR3           

        CLASS   SFR4           

        CLASS   SFR5           

        CLASS   SFR6           

        CLASS   SFR7           

        CLASS   SFR8           

        CLASS   SFR9           

        CLASS   SFR10          

        CLASS   SFR11          

        CLASS   SFR12          

        CLASS   SFR13          

        CLASS   SFR14          

        CLASS   SFR15          

        CLASS   SFR16          

        CLASS   SFR17          

        CLASS   SFR18          

        CLASS   SFR19          

        CLASS   SFR20          

        CLASS   SFR21          

        CLASS   SFR22          

        CLASS   SFR23          

        CLASS   SFR24          

        CLASS   SFR25          

        CLASS   SFR26          

        CLASS   SFR27          

        CLASS   SFR28          

        CLASS   SFR29          

        CLASS   SFR30          

        CLASS   SFR31          

        CLASS   CONFIG         
                config                             8007     8007        4         4

        CLASS   IDLOC          
                idloc                              8000     8000        4         5

        CLASS   EEDATA         

        CLASS   BANK31         

        CLASS   BANK30         

        CLASS   BANK29         

        CLASS   BANK28         

        CLASS   BANK27         

        CLASS   BANK26         

        CLASS   UNCLASSED
                codecov_info                          0        0     3434         6
                codecov_info_hdr                      0        0       10         6


SEGMENTS        Name                           Load    Length   Top    Selector   Space  Class     Delta

                text3                          0019B1  00001B  0019CC      3362       0  CODE        2
                text108                        0019CC  00001C  0019E8      3398       0  CODE        2
                text38                         001996  00001B  0019B1      332C       0  CODE        2
                text64                         001960  00001B  00197B      32C0       0  CODE        2
                text48                         00197B  00001B  001996      32F6       0  CODE        2
                text87                         0019E8  00001C  001A04      33D0       0  CODE        2
                text110                        001A5A  00001E  001A78      34B4       0  CODE        2
                text78                         001A78  000021  001A99      34F0       0  CODE        2
                text39                         001A3D  00001D  001A5A      347A       0  CODE        2
                text53                         001A04  00001C  001A20      3408       0  CODE        2
                text66                         001A20  00001D  001A3D      3440       0  CODE        2
                jmp_tab__puts                  001800  00001A  00181A      3000       0  ENTRY       2
                text61                         0018A4  000015  0018B9      3148       0  CODE        2
                text84                         0018B9  000016  0018CF      3172       0  CODE        2
                text62                         001890  000014  0018A4      3120       0  CODE        2
                text15                         001869  000013  00187C      30D2       0  CODE        2
                text80                         00187C  000014  001890      30F8       0  CODE        2
                text43                         0018CF  000016  0018E5      319E       0  CODE        2
                text96                         00192C  00001A  001946      3258       0  CODE        2
                text95                         001946  00001A  001960      328C       0  CODE        2
                text107                        001913  000019  00192C      3226       0  CODE        2
                text37                         0018E5  000016  0018FB      31CA       0  CODE        2
                text105                        0018FB  000018  001913      31F6       0  CODE        2
                text42                         001A99  000022  001ABB      3532       0  CODE        2
                text44                         001D07  000036  001D3D      3A0E       0  CODE        2
                text30                         001D3D  000037  001D74      3A7A       0  CODE        2
                text71                         001CD4  000033  001D07      39A8       0  CODE        2
                text91                         001C71  000031  001CA2      38E2       0  CODE        2
                text6                          001CA2  000032  001CD4      3944       0  CODE        2
                text29                         001D74  000045  001DB9      3AE8       0  CODE        2
                text13                         001E4B  00004F  001E9A      3C96       0  CODE        2
                text26                         001E9A  000053  001EED      3D34       0  CODE        2
                text35                         001E02  000049  001E4B      3C04       0  CODE        2
                text112                        001001  000046  001047      2002       0  CODE        2
                text50                         001DB9  000049  001E02      3B72       0  CODE        2
                stringtext1                    002000  00027B  00227B      4000       0  STRCODE     2
                text10                         001B25  000025  001B4A      364A       0  CODE        2
                text73                         001B4A  000027  001B71      3694       0  CODE        2
                text34                         001B01  000024  001B25      3602       0  CODE        2
                text103                        001ABB  000023  001ADE      3576       0  CODE        2
                text24                         001ADE  000023  001B01      35BC       0  CODE        2
                text17                         001B71  000027  001B98      36E2       0  CODE        2
                text7                          001C19  00002B  001C44      3832       0  CODE        2
                text57                         001C44  00002D  001C71      3888       0  CODE        2
                text28                         001BEE  00002B  001C19      37DC       0  CODE        2
                text111                        001B98  00002B  001BC3      3730       0  CODE        2
                text49                         001BC3  00002B  001BEE      3786       0  CODE        2
                text90                         001856  000013  001869      30AC       0  CODE        2
                text56                         0026B3  00000A  0026BD      4D66       0  CODE        2
                text20                         0026BD  00000A  0026C7      4D7A       0  CODE        2
                text5                          0026AA  000009  0026B3      4D54       0  CODE        2
                text2                          002699  000008  0026A1      4D32       0  CODE        2
                text51                         0026A1  000009  0026AA      4D42       0  CODE        2
                jmp_tab__write_correction      00227B  000020  00229B      44F6       0  ENTRY       2
                text76                         0026E8  00000B  0026F3      4DD0       0  CODE        2
                text75                         0026F3  00000B  0026FE      4DE6       0  CODE        2
                text77                         0026DD  00000B  0026E8      4DBA       0  CODE        2
                text109                        0026C7  00000B  0026D2      4D8E       0  CODE        2
                text106                        0026D2  00000B  0026DD      4DA4       0  CODE        2
                text83                         002691  000008  002699      4D22       0  CODE        2
                text81                         00266F  000003  002672      4CDE       0  CODE        2
                text36                         002672  000004  002676      4CE4       0  CODE        2
                text88                         00266C  000003  00266F      4CD8       0  CODE        2
                jmp_tab__spd_init              000002  000002  000004         4       0  ENTRY       2
                text16                         002676  000004  00267A      4CEC       0  CODE        2
                text113                        002681  000008  002689      4D02       0  CODE        2
                text85                         002689  000008  002691      4D12       0  CODE        2
                text86                         00181A  000007  001821      3034       0  CODE        2
                clrtext                        000800  000006  000806      1000       0  CODE        2
                text104                        00267A  000007  002681      4CF4       0  CODE        2
                text74                         0026FE  00000B  002709      4DFC       0  CODE        2
                text12                         0027AE  00000F  0027BD      4F5C       0  CODE        2
                text70                         0027BD  000010  0027CD      4F7A       0  CODE        2
                text114                        0027A0  00000E  0027AE      4F40       0  CODE        2
                text18                         002794  00000C  0027A0      4F28       0  CODE        2
                stringtext20                   002800  000019  002819      5000       0  STRCODE     2
                text52                         0027CD  000011  0027DE      4F9A       0  CODE        2
                text23                         001832  000012  001844      3064       0  CODE        2
                text4                          001844  000012  001856      3088       0  CODE        2
                text14                         001821  000011  001832      3042       0  CODE        2
                text25                         0027DE  000011  0027EF      4FBC       0  CODE        2
                text21                         0027EF  000011  002800      4FDE       0  CODE        2
                text19                         002788  00000C  002794      4F10       0  CODE        2
                text63                         00272A  00000B  002735      4E54       0  CODE        2
                text22                         002735  00000B  002740      4E6A       0  CODE        2
                text65                         00271F  00000B  00272A      4E3E       0  CODE        2
                text72                         002709  00000B  002714      4E12       0  CODE        2
                text67                         002714  00000B  00271F      4E28       0  CODE        2
                text99                         002740  00000C  00274C      4E80       0  CODE        2
                text59                         002770  00000C  00277C      4EE0       0  CODE        2
                text40                         00277C  00000C  002788      4EF8       0  CODE        2
                text60                         002764  00000C  002770      4EC8       0  CODE        2
                text69                         00274C  00000C  002758      4E98       0  CODE        2
                text68                         002758  00000C  002764      4EB0       0  CODE        2
                cstackBANK1                    0000A0  000050  0000F0        A0       1  BANK1       1
                bitbssBANK2                    000120  000050  000170       120       1  BANK2       1
                reset_vec                      000000  000002  000002         0       0  CODE        2
                cstackBANK0                    000020  000050  000070        20       1  BANK0       1
                bssBANK3                       0001A0  000048  0001E8       1A0       1  BANK3       1
                cstackBANK4                    000220  000014  000234       220       1  BANK4       1
                intentry                       000004  0007FC  000800         8       0  CODE        2
                cstackCOMMON                   000070  00000E  00007E        70       1  COMMON      1
                text8                          0011A4  000092  001236      2348       0  CODE        2
                text32                         00112F  000075  0011A4      225E       0  CODE        2
                text100                        001236  0000AC  0012E2      246C       0  CODE        2
                text101                        0010BA  000075  00112F      2174       0  CODE        2
                text31                         0012E2  0000AD  00138F      25C4       0  CODE        2
                text41                         001047  000073  0010BA      208E       0  CODE        2
                text94                         001FA1  00005F  002000      3F42       0  CODE        2
                text82                         00138F  0000C2  001451      271E       0  CODE        2
                text89                         001451  0000D7  001528      28A2       0  CODE        2
                text1                          000806  000057  00085D      100C       0  CODE        2
                text47                         001F43  00005E  001FA1      3E86       0  CODE        2
                text27                         001EED  000056  001F43      3DDA       0  CODE        2
                text93                         000CFE  000172  000E70      19FC       0  CODE        2
                text46                         000B8D  000171  000CFE      171A       0  CODE        2
                text11                         000E70  000191  001001      1CE0       0  CODE        2
                text98                         0016FF  000101  001800      2DFE       0  CODE        2
                text54                         001612  0000ED  0016FF      2C24       0  CODE        2
                text97                         001528  0000EA  001612      2A50       0  CODE        2
                text9                          000A6B  000122  000B8D      14D6       0  CODE        2
                text45                         000962  000109  000A6B      12C4       0  CODE        2
                text55                         00085D  000105  000962      10BA       0  CODE        2


UNUSED ADDRESS RANGES

        Name                Unused          Largest block    Delta
        BANK10           00520-0056F              50           1
        BANK11           005A0-005EF              50           1
        BANK12           00620-0066F              50           1
        BANK13           006A0-006EF              50           1
        BANK14           00720-0076F              50           1
        BANK15           007A0-007EF              50           1
        BANK16           00820-0086F              50           1
        BANK17           008A0-008EF              50           1
        BANK18           00920-0096F              50           1
        BANK19           009A0-009EF              50           1
        BANK20           00A20-00A6F              50           1
        BANK21           00AA0-00AEF              50           1
        BANK22           00B20-00B6F              50           1
        BANK23           00BA0-00BEF              50           1
        BANK24           00C20-00C6F              50           1
        BANK25           00CA0-00CBF              20           1
        BANK3            001E8-001EF               8           1
        BANK4            00234-0026F              3C           1
        BANK5            002A0-002EF              50           1
        BANK6            00320-0036F              50           1
        BANK7            003A0-003EF              50           1
        BANK8            00420-0046F              50           1
        BANK9            004A0-004EF              50           1
        BIGRAM           02000-027EF             7F0           1
        CODE             0229B-0266B             3D1           2
                         02819-03FFF             800
        CONST            0229B-0266B             100           2
                         02819-03FFF             100
        EEDATA           0F000-0F0FF             100           2
        ENTRY            0229B-0266B             100           2
                         02819-03FFF             100
        RAM              001E8-001EF               8           1
                         00234-0026F              3C
                         002A0-002EF              50
                         00320-0036F              50
                         003A0-003EF              50
                         00420-0046F              50
                         004A0-004EF              50
                         00520-0056F              50
                         005A0-005EF              50
                         00620-0066F              50
                         006A0-006EF              50
                         00720-0076F              50
                         007A0-007EF              50
                         00820-0086F              50
                         008A0-008EF              50
                         00920-0096F              50
                         009A0-009EF              50
                         00A20-00A6F              50
                         00AA0-00AEF              50
                         00B20-00B6F              50
                         00BA0-00BEF              50
                         00C20-00C6F              50
                         00CA0-00CBF              20
        SFR0             00000-0001F              20           1
        SFR1             00080-0009F              20           1
        SFR10            00500-0051F              20           1
        SFR11            00580-0059F              20           1
        SFR12            00600-0061F              20           1
        SFR13            00680-0069F              20           1
        SFR14            00700-0071F              20           1
        SFR15            00780-0079F              20           1
        SFR16            00800-0081F              20           1
        SFR17            00880-0089F              20           1
        SFR18            00900-0091F              20           1
        SFR19            00980-0099F              20           1
        SFR2             00100-0011F              20           1
        SFR20            00A00-00A1F              20           1
        SFR21            00A80-00A9F              20           1
        SFR22            00B00-00B1F              20           1
        SFR23            00B80-00B9F              20           1
        SFR24            00C00-00C1F              20           1
        SFR25            00C80-00C9F              20           1
        SFR26            00D00-00D6F              70           1
        SFR27            00D80-00DEF              70           1
        SFR28            00E00-00E6F              70           1
        SFR29            00E80-00EEF              70           1
        SFR3             00180-0019F              20           1
        SFR30            00F00-00F6F              70           1
        SFR31            00F80-00FEF              70           1
        SFR4             00200-0021F              20           1
        SFR5             00280-0029F              20           1
        SFR6             00300-0031F              20           1
        SFR7             00380-0039F              20           1
        SFR8             00400-0041F              20           1
        SFR9             00480-0049F              20           1
        STACK            02154-027EF             69C           1
        STRCODE          0229B-0266B             3D1           2
                         02819-03FFF            17E7
        STRING           0229B-0266B             100           2
                         02819-03FFF             100

                                  Symbol Table

?_ADC_GetConversion                            cstackBANK1                        000A8
?_FLASH_ReadWord                               cstackBANK1                        000A8
?__Umul8_16                                    cstackBANK1                        000A8
?___aodiv                                      cstackBANK1                        000A8
?___aomod                                      cstackBANK1                        000A8
?___flmul                                      cstackBANK1                        000B6
?___fltol                                      cstackBANK1                        000D0
?___xxtofl                                     cstackBANK1                        000A8
?_abs                                          cstackBANK1                        000BB
?_button_check                                 cstackBANK2                        0014F
?_dtoa                                         cstackBANK1                        000C5
?_fputc                                        cstackBANK1                        000AA
?_fputs                                        cstackBANK1                        000B2
?_fuel_get_corr                                cstackBANK1                        000A8
?_fuel_pwm_calculate                           cstackBANK1                        000DB
?_fuel_uint_to_float                           cstackBANK1                        000D0
?_pad                                          cstackBANK1                        000BB
?_printf                                       cstackBANK2                        00144
?_read_correction                              cstackBANK1                        000C2
?_spd_get_k_corr                               cstackBANK1                        000A8
?_spd_uint_to_float                            cstackBANK1                        000D0
?_strlen                                       cstackBANK1                        000A8
?_vfpfcnvrt                                    cstackBANK2                        00129
?_vfprintf                                     cstackBANK2                        0013A
?i1__Umul8_16                                  cstackCOMMON                       00070
?i1___aodiv                                    cstackBANK0                        00020
?i1___aomod                                    cstackBANK0                        00020
?i1___flmul                                    cstackBANK0                        00020
?i1___fltol                                    cstackBANK0                        0003A
?i1___xxtofl                                   cstackCOMMON                       00070
?i1_abs                                        cstackCOMMON                       00073
?i1_dtoa                                       cstackBANK0                        00030
?i1_fputc                                      cstackCOMMON                       00072
?i1_fputs                                      cstackCOMMON                       0007A
?i1_pad                                        cstackBANK0                        00026
?i1_printf                                     cstackBANK0                        00068
?i1_strlen                                     cstackCOMMON                       00070
?i1_vfpfcnvrt                                  cstackBANK0                        0004E
?i1_vfprintf                                   cstackBANK0                        00060
ADC_GetConversion@channel                      cstackBANK1                        000AB
DATAEE_ReadByte@bAdd                           cstackBANK1                        000A8
DATAEE_WriteByte@GIEBitValue                   cstackBANK1                        000AB
DATAEE_WriteByte@bAdd                          cstackBANK1                        000A8
DATAEE_WriteByte@bData                         cstackBANK1                        000AA
EUSART_SetErrorHandler@interruptHandler        cstackBANK1                        000A8
EUSART_SetFramingErrorHandler@interruptHandler cstackBANK1                        000A8
EUSART_SetOverrunErrorHandler@interruptHandler cstackBANK1                        000A8
EUSART_Write@txData                            cstackBANK1                        000A8
FLASH_ReadWord@GIEBitValue                     cstackBANK1                        000AA
FLASH_ReadWord@flashAddr                       cstackBANK1                        000A8
PWM5_LoadDutyValue@dutyValue                   cstackBANK1                        000A8
PWM6_LoadDutyValue@dutyValue                   cstackBANK1                        000A8
TMR0_SetInterruptHandler@InterruptHandler      cstackBANK1                        000A8
TMR1_SetInterruptHandler@InterruptHandler      cstackBANK1                        000A8
TMR1_WriteTimer@timerVal                       cstackCOMMON                       00070
TMR2_SetInterruptHandler@InterruptHandler      cstackBANK1                        000A8
TMR6_LoadPeriodRegister@periodVal              cstackBANK1                        000A8
_ADACT                                         (abs)                              0009F
_ADCON0                                        (abs)                              0009D
_ADCON0bits                                    (abs)                              0009D
_ADCON1                                        (abs)                              0009E
_ADC_GetConversion                             text39                             01A3D
_ADC_Initialize                                text77                             026DD
_ADRESH                                        (abs)                              0009C
_ADRESL                                        (abs)                              0009B
_ANSELA                                        (abs)                              0018C
_ANSELC                                        (abs)                              0018E
_BAUD1CON                                      (abs)                              0019F
_DATAEE_ReadByte                               text14                             01821
_DATAEE_WriteByte                              text10                             01B25
_EUSART_DefaultErrorHandler                    (abs)                              00000
_EUSART_DefaultFramingErrorHandler             (abs)                              00000
_EUSART_DefaultOverrunErrorHandler             (abs)                              00000
_EUSART_ErrorHandler                           nvBANK3                            001E2
_EUSART_FramingErrorHandler                    nvBANK3                            001E6
_EUSART_Initialize                             text73                             01B4A
_EUSART_OverrunErrorHandler                    nvBANK3                            001E4
_EUSART_SetErrorHandler                        text76                             026E8
_EUSART_SetFramingErrorHandler                 text75                             026F3
_EUSART_SetOverrunErrorHandler                 text74                             026FE
_EUSART_Write                                  text52                             027CD
_FLASH_ReadWord                                text78                             01A78
_INLVLA                                        (abs)                              0038C
_INLVLC                                        (abs)                              0038E
_INTCONbits                                    (abs)                              0000B
_INTERRUPT_InterruptManager                    intentry                           00004
_LATA                                          (abs)                              0010C
_LATAbits                                      (abs)                              0010C
_LATC                                          (abs)                              0010E
_LATCbits                                      (abs)                              0010E
_NVMADRH                                       (abs)                              00892
_NVMADRL                                       (abs)                              00891
_NVMCON1bits                                   (abs)                              00895
_NVMCON2                                       (abs)                              00896
_NVMDATH                                       (abs)                              00894
_NVMDATL                                       (abs)                              00893
_ODCONA                                        (abs)                              0028C
_ODCONC                                        (abs)                              0028E
_OSCCON1                                       (abs)                              00919
_OSCCON3                                       (abs)                              0091B
_OSCEN                                         (abs)                              0091D
_OSCFRQ                                        (abs)                              0091F
_OSCILLATOR_Initialize                         text72                             02709
_OSCTUNE                                       (abs)                              0091E
_PIE0bits                                      (abs)                              00090
_PIE1bits                                      (abs)                              00091
_PIN_MANAGER_Initialize                        text71                             01CD4
_PIR0bits                                      (abs)                              00010
_PIR1bits                                      (abs)                              00011
_PIR2bits                                      (abs)                              00012
_PIR3bits                                      (abs)                              00013
_PMD0                                          (abs)                              00911
_PMD1                                          (abs)                              00912
_PMD2                                          (abs)                              00913
_PMD3                                          (abs)                              00914
_PMD4                                          (abs)                              00915
_PMD5                                          (abs)                              00916
_PMD_Initialize                                text70                             027BD
_PORTCbits                                     (abs)                              0000E
_PR2                                           (abs)                              0001E
_PR4                                           (abs)                              00416
_PR6                                           (abs)                              0041D
_PWM5CON                                       (abs)                              00619
_PWM5DCH                                       (abs)                              00618
_PWM5DCL                                       (abs)                              00617
_PWM5_Initialize                               text69                             0274C
_PWM5_LoadDutyValue                            text38                             01996
_PWM6CON                                       (abs)                              0061C
_PWM6DCH                                       (abs)                              0061B
_PWM6DCL                                       (abs)                              0061A
_PWM6_Initialize                               text68                             02758
_PWM6_LoadDutyValue                            text3                              019B1
_PWMTMRSbits                                   (abs)                              0061F
_RA0PPS                                        (abs)                              00E90
_RA1PPS                                        (abs)                              00E91
_RA2PPS                                        (abs)                              00E92
_RC1PPS                                        (abs)                              00EA1
_RC1REG                                        (abs)                              00199
_RC1STA                                        (abs)                              0019D
_RC1STAbits                                    (abs)                              0019D
_RXPPS                                         (abs)                              00E24
_SLRCONA                                       (abs)                              0030C
_SLRCONC                                       (abs)                              0030E
_SP1BRGH                                       (abs)                              0019C
_SP1BRGL                                       (abs)                              0019B
_SYSTEM_Initialize                             text57                             01C44
_T0CKIPPS                                      (abs)                              00E11
_T0CON0                                        (abs)                              00017
_T0CON0bits                                    (abs)                              00017
_T0CON1                                        (abs)                              00018
_T1CON                                         (abs)                              0001B
_T1CONbits                                     (abs)                              0001B
_T1GCON                                        (abs)                              0001C
_T1GCONbits                                    (abs)                              0001C
_T2CON                                         (abs)                              0001F
_T2CONbits                                     (abs)                              0001F
_T3CON                                         (abs)                              00413
_T3CONbits                                     (abs)                              00413
_T3GCON                                        (abs)                              00414
_T3GCONbits                                    (abs)                              00414
_T4CON                                         (abs)                              00417
_T4CONbits                                     (abs)                              00417
_T6CON                                         (abs)                              0041E
_T6CONbits                                     (abs)                              0041E
_TMR0H                                         (abs)                              00016
_TMR0L                                         (abs)                              00015
_TMR0_DefaultInterruptHandler                  text109                            026C7
_TMR0_ISR                                      text108                            019CC
_TMR0_Initialize                               text66                             01A20
_TMR0_InterruptHandler                         nvBANK3                            001DC
_TMR0_Reload                                   text106                            026D2
_TMR0_SetInterruptHandler                      text67                             02714
_TMR1H                                         (abs)                              0001A
_TMR1L                                         (abs)                              00019
_TMR1_DefaultInterruptHandler                  text88                             0266C
_TMR1_ISR                                      text87                             019E8
_TMR1_Initialize                               text64                             01960
_TMR1_InterruptHandler                         nvBANK3                            001DE
_TMR1_SetInterruptHandler                      text65                             0271F
_TMR1_WriteTimer                               text107                            01913
_TMR2                                          (abs)                              0001D
_TMR2IE                                        (abs)                              00489
_TMR2IF                                        (abs)                              00089
_TMR2_DefaultInterruptHandler                  text81                             0266F
_TMR2_ISR                                      text80                             0187C
_TMR2_Initialize                               text62                             01890
_TMR2_InterruptHandler                         nvBANK3                            001D8
_TMR2_SetInterruptHandler                      text63                             0272A
_TMR3H                                         (abs)                              00412
_TMR3L                                         (abs)                              00411
_TMR3_Initialize                               text61                             018A4
_TMR4                                          (abs)                              00415
_TMR4_Initialize                               text60                             02764
_TMR6                                          (abs)                              0041C
_TMR6_Initialize                               text59                             02770
_TMR6_LoadPeriodRegister                       text2                              02699
_TRISA                                         (abs)                              0008C
_TRISC                                         (abs)                              0008E
_TX1REG                                        (abs)                              0019A
_TX1STA                                        (abs)                              0019E
_TX1STAbits                                    (abs)                              0019E
_TXPPS                                         (abs)                              00E25
_WDTCON                                        (abs)                              00097
_WDT_Initialize                                text58                             007FB
_WPUA                                          (abs)                              0020C
_WPUC                                          (abs)                              0020E
__Habs1                                        abs1                               00000
__Hbank0                                       bank0                              00000
__Hbank1                                       bank1                              00000
__Hbank10                                      bank10                             00000
__Hbank11                                      bank11                             00000
__Hbank12                                      bank12                             00000
__Hbank13                                      bank13                             00000
__Hbank14                                      bank14                             00000
__Hbank15                                      bank15                             00000
__Hbank16                                      bank16                             00000
__Hbank17                                      bank17                             00000
__Hbank18                                      bank18                             00000
__Hbank19                                      bank19                             00000
__Hbank2                                       bank2                              00000
__Hbank20                                      bank20                             00000
__Hbank21                                      bank21                             00000
__Hbank22                                      bank22                             00000
__Hbank23                                      bank23                             00000
__Hbank24                                      bank24                             00000
__Hbank25                                      bank25                             00000
__Hbank26                                      bank26                             00000
__Hbank27                                      bank27                             00000
__Hbank28                                      bank28                             00000
__Hbank29                                      bank29                             00000
__Hbank3                                       bank3                              00000
__Hbank30                                      bank30                             00000
__Hbank31                                      bank31                             00000
__Hbank4                                       bank4                              00000
__Hbank5                                       bank5                              00000
__Hbank6                                       bank6                              00000
__Hbank7                                       bank7                              00000
__Hbank8                                       bank8                              00000
__Hbank9                                       bank9                              00000
__Hbigram                                      bigram                             00000
__HbitbssBANK0                                 bitbssBANK0                        00000
__HbitbssBANK1                                 bitbssBANK1                        00000
__HbitbssBANK2                                 bitbssBANK2                        00000
__HbitbssBANK3                                 bitbssBANK3                        00000
__HbssBANK1                                    bssBANK1                           00000
__HbssBANK2                                    bssBANK2                           00000
__HbssBANK3                                    bssBANK3                           00000
__Hcinit                                       cinit                              0007C
__Hclrtext                                     clrtext                            00000
__Hcode                                        code                               00000
__Hcodecov_info                                codecov_info                       03434
__Hcodecov_info_hdr                            codecov_info_hdr                   00010
__Hcommon                                      common                             00000
__Hconfig                                      config                             0800B
__HcstackBANK0                                 cstackBANK0                        00000
__HcstackBANK1                                 cstackBANK1                        00000
__HcstackBANK2                                 cstackBANK2                        00000
__HcstackBANK4                                 cstackBANK4                        00000
__HcstackCOMMON                                cstackCOMMON                       00000
__HdataBANK2                                   dataBANK2                          00000
__Heeprom_data                                 eeprom_data                        00000
__Hend_init                                    end_init                           00046
__Hfunctab                                     functab                            00000
__HidataBANK2                                  idataBANK2                         00000
__Hidloc                                       idloc                              08004
__Hinit                                        init                               00044
__Hintentry                                    intentry                           00044
__Hjmp_tab__button_check                       jmp_tab__button_check              00000
__Hjmp_tab__dtoa                               jmp_tab__dtoa                      00000
__Hjmp_tab__eeprom_read_error_handler          jmp_tab__eeprom_read_error_handler 00000
__Hjmp_tab__pad                                jmp_tab__pad                       00000
__Hjmp_tab__printf                             jmp_tab__printf                    00000
__Hjmp_tab__puts                               jmp_tab__puts                      00000
__Hjmp_tab__read_correction                    jmp_tab__read_correction           00000
__Hjmp_tab__spd_init                           jmp_tab__spd_init                  00000
__Hjmp_tab__vfpfcnvrt                          jmp_tab__vfpfcnvrt                 00000
__Hjmp_tab__vfprintf                           jmp_tab__vfprintf                  00000
__Hjmp_tab__write_correction                   jmp_tab__write_correction          00000
__Hmaintext                                    maintext                           00000
__HnvBANK2                                     nvBANK2                            00000
__HnvBANK3                                     nvBANK3                            00000
__Hpowerup                                     powerup                            00000
__Hram                                         ram                                00000
__Hreset_vec                                   reset_vec                          00002
__Hsfr0                                        sfr0                               00000
__Hsfr1                                        sfr1                               00000
__Hsfr10                                       sfr10                              00000
__Hsfr11                                       sfr11                              00000
__Hsfr12                                       sfr12                              00000
__Hsfr13                                       sfr13                              00000
__Hsfr14                                       sfr14                              00000
__Hsfr15                                       sfr15                              00000
__Hsfr16                                       sfr16                              00000
__Hsfr17                                       sfr17                              00000
__Hsfr18                                       sfr18                              00000
__Hsfr19                                       sfr19                              00000
__Hsfr2                                        sfr2                               00000
__Hsfr20                                       sfr20                              00000
__Hsfr21                                       sfr21                              00000
__Hsfr22                                       sfr22                              00000
__Hsfr23                                       sfr23                              00000
__Hsfr24                                       sfr24                              00000
__Hsfr25                                       sfr25                              00000
__Hsfr26                                       sfr26                              00000
__Hsfr27                                       sfr27                              00000
__Hsfr28                                       sfr28                              00000
__Hsfr29                                       sfr29                              00000
__Hsfr3                                        sfr3                               00000
__Hsfr30                                       sfr30                              00000
__Hsfr31                                       sfr31                              00000
__Hsfr4                                        sfr4                               00000
__Hsfr5                                        sfr5                               00000
__Hsfr6                                        sfr6                               00000
__Hsfr7                                        sfr7                               00000
__Hsfr8                                        sfr8                               00000
__Hsfr9                                        sfr9                               00000
__Hspace_0                                     (abs)                              02819
__Hspace_1                                     (abs)                              00EBF
__Hspace_2                                     (abs)                              00000
__Hspace_3                                     (abs)                              00000
__Hspace_4                                     (abs)                              10012
__Hstack                                       stack                              00000
__Hstrings                                     strings                            00000
__Hstringtext1                                 stringtext1                        00000
__Hstringtext10                                stringtext10                       00000
__Hstringtext11                                stringtext11                       00000
__Hstringtext12                                stringtext12                       00000
__Hstringtext13                                stringtext13                       00000
__Hstringtext14                                stringtext14                       00000
__Hstringtext15                                stringtext15                       00000
__Hstringtext16                                stringtext16                       00000
__Hstringtext17                                stringtext17                       00000
__Hstringtext18                                stringtext18                       00000
__Hstringtext19                                stringtext19                       00000
__Hstringtext2                                 stringtext2                        00000
__Hstringtext20                                stringtext20                       00000
__Hstringtext21                                stringtext21                       00000
__Hstringtext22                                stringtext22                       00000
__Hstringtext3                                 stringtext3                        00000
__Hstringtext4                                 stringtext4                        00000
__Hstringtext5                                 stringtext5                        00000
__Hstringtext6                                 stringtext6                        00000
__Hstringtext7                                 stringtext7                        00000
__Hstringtext8                                 stringtext8                        00000
__Hstringtext9                                 stringtext9                        00000
__Htext                                        text                               00000
__Labs1                                        abs1                               00000
__Lbank0                                       bank0                              00000
__Lbank1                                       bank1                              00000
__Lbank10                                      bank10                             00000
__Lbank11                                      bank11                             00000
__Lbank12                                      bank12                             00000
__Lbank13                                      bank13                             00000
__Lbank14                                      bank14                             00000
__Lbank15                                      bank15                             00000
__Lbank16                                      bank16                             00000
__Lbank17                                      bank17                             00000
__Lbank18                                      bank18                             00000
__Lbank19                                      bank19                             00000
__Lbank2                                       bank2                              00000
__Lbank20                                      bank20                             00000
__Lbank21                                      bank21                             00000
__Lbank22                                      bank22                             00000
__Lbank23                                      bank23                             00000
__Lbank24                                      bank24                             00000
__Lbank25                                      bank25                             00000
__Lbank26                                      bank26                             00000
__Lbank27                                      bank27                             00000
__Lbank28                                      bank28                             00000
__Lbank29                                      bank29                             00000
__Lbank3                                       bank3                              00000
__Lbank30                                      bank30                             00000
__Lbank31                                      bank31                             00000
__Lbank4                                       bank4                              00000
__Lbank5                                       bank5                              00000
__Lbank6                                       bank6                              00000
__Lbank7                                       bank7                              00000
__Lbank8                                       bank8                              00000
__Lbank9                                       bank9                              00000
__Lbigram                                      bigram                             00000
__LbitbssBANK0                                 bitbssBANK0                        00000
__LbitbssBANK1                                 bitbssBANK1                        00000
__LbitbssBANK2                                 bitbssBANK2                        00000
__LbitbssBANK3                                 bitbssBANK3                        00000
__LbssBANK1                                    bssBANK1                           00000
__LbssBANK2                                    bssBANK2                           00000
__LbssBANK3                                    bssBANK3                           00000
__Lcinit                                       cinit                              00046
__Lclrtext                                     clrtext                            00000
__Lcode                                        code                               00000
__Lcodecov_info                                codecov_info                       00000
__Lcodecov_info_hdr                            codecov_info_hdr                   00000
__Lcommon                                      common                             00000
__Lconfig                                      config                             00000
__LcstackBANK0                                 cstackBANK0                        00000
__LcstackBANK1                                 cstackBANK1                        00000
__LcstackBANK2                                 cstackBANK2                        00000
__LcstackBANK4                                 cstackBANK4                        00000
__LcstackCOMMON                                cstackCOMMON                       00000
__LdataBANK2                                   dataBANK2                          00000
__Leeprom_data                                 eeprom_data                        00000
__Lend_init                                    end_init                           00044
__Lfunctab                                     functab                            00000
__LidataBANK2                                  idataBANK2                         00000
__Lidloc                                       idloc                              00000
__Linit                                        init                               00044
__Lintentry                                    intentry                           00004
__Ljmp_tab__button_check                       jmp_tab__button_check              00000
__Ljmp_tab__dtoa                               jmp_tab__dtoa                      00000
__Ljmp_tab__eeprom_read_error_handler          jmp_tab__eeprom_read_error_handler 00000
__Ljmp_tab__pad                                jmp_tab__pad                       00000
__Ljmp_tab__printf                             jmp_tab__printf                    00000
__Ljmp_tab__puts                               jmp_tab__puts                      00000
__Ljmp_tab__read_correction                    jmp_tab__read_correction           00000
__Ljmp_tab__spd_init                           jmp_tab__spd_init                  00000
__Ljmp_tab__vfpfcnvrt                          jmp_tab__vfpfcnvrt                 00000
__Ljmp_tab__vfprintf                           jmp_tab__vfprintf                  00000
__Ljmp_tab__write_correction                   jmp_tab__write_correction          00000
__Lmaintext                                    maintext                           00000
__LnvBANK2                                     nvBANK2                            00000
__LnvBANK3                                     nvBANK3                            00000
__Lpowerup                                     powerup                            00000
__Lram                                         ram                                00000
__Lreset_vec                                   reset_vec                          00000
__Lsfr0                                        sfr0                               00000
__Lsfr1                                        sfr1                               00000
__Lsfr10                                       sfr10                              00000
__Lsfr11                                       sfr11                              00000
__Lsfr12                                       sfr12                              00000
__Lsfr13                                       sfr13                              00000
__Lsfr14                                       sfr14                              00000
__Lsfr15                                       sfr15                              00000
__Lsfr16                                       sfr16                              00000
__Lsfr17                                       sfr17                              00000
__Lsfr18                                       sfr18                              00000
__Lsfr19                                       sfr19                              00000
__Lsfr2                                        sfr2                               00000
__Lsfr20                                       sfr20                              00000
__Lsfr21                                       sfr21                              00000
__Lsfr22                                       sfr22                              00000
__Lsfr23                                       sfr23                              00000
__Lsfr24                                       sfr24                              00000
__Lsfr25                                       sfr25                              00000
__Lsfr26                                       sfr26                              00000
__Lsfr27                                       sfr27                              00000
__Lsfr28                                       sfr28                              00000
__Lsfr29                                       sfr29                              00000
__Lsfr3                                        sfr3                               00000
__Lsfr30                                       sfr30                              00000
__Lsfr31                                       sfr31                              00000
__Lsfr4                                        sfr4                               00000
__Lsfr5                                        sfr5                               00000
__Lsfr6                                        sfr6                               00000
__Lsfr7                                        sfr7                               00000
__Lsfr8                                        sfr8                               00000
__Lsfr9                                        sfr9                               00000
__Lspace_0                                     (abs)                              00000
__Lspace_1                                     (abs)                              00000
__Lspace_2                                     (abs)                              00000
__Lspace_3                                     (abs)                              00000
__Lspace_4                                     (abs)                              00000
__Lstack                                       stack                              00000
__Lstrings                                     strings                            00000
__Lstringtext1                                 stringtext1                        00000
__Lstringtext10                                stringtext10                       00000
__Lstringtext11                                stringtext11                       00000
__Lstringtext12                                stringtext12                       00000
__Lstringtext13                                stringtext13                       00000
__Lstringtext14                                stringtext14                       00000
__Lstringtext15                                stringtext15                       00000
__Lstringtext16                                stringtext16                       00000
__Lstringtext17                                stringtext17                       00000
__Lstringtext18                                stringtext18                       00000
__Lstringtext19                                stringtext19                       00000
__Lstringtext2                                 stringtext2                        00000
__Lstringtext20                                stringtext20                       00000
__Lstringtext21                                stringtext21                       00000
__Lstringtext22                                stringtext22                       00000
__Lstringtext3                                 stringtext3                        00000
__Lstringtext4                                 stringtext4                        00000
__Lstringtext5                                 stringtext5                        00000
__Lstringtext6                                 stringtext6                        00000
__Lstringtext7                                 stringtext7                        00000
__Lstringtext8                                 stringtext8                        00000
__Lstringtext9                                 stringtext9                        00000
__Ltext                                        text                               00000
__S0                                           (abs)                              02819
__S1                                           (abs)                              00234
__S2                                           (abs)                              00000
__S3                                           (abs)                              00000
__Umul8_16                                     text34                             01B01
__Umul8_16@multiplicand                        cstackBANK1                        000A8
__Umul8_16@multiplier                          cstackBANK1                        000B0
__Umul8_16@product                             cstackBANK1                        000AC
__Umul8_16@word_mpld                           cstackBANK1                        000AE
___aodiv                                       text55                             0085D
___aodiv@counter                               cstackBANK1                        000B9
___aodiv@dividend                              cstackBANK1                        000B0
___aodiv@divisor                               cstackBANK1                        000A8
___aodiv@quotient                              cstackBANK1                        000BB
___aodiv@sign                                  cstackBANK1                        000BA
___aomod                                       text54                             01612
___aomod@counter                               cstackBANK1                        000B9
___aomod@dividend                              cstackBANK1                        000B0
___aomod@divisor                               cstackBANK1                        000A8
___aomod@sign                                  cstackBANK1                        000BA
___fleq                                        text13                             01E4B
___fleq@ff1                                    cstackBANK1                        000A8
___fleq@ff2                                    cstackBANK1                        000AC
___flmul                                       text33                             0007C
___flmul@a                                     cstackBANK1                        000BA
___flmul@aexp                                  cstackBANK1                        000C4
___flmul@b                                     cstackBANK1                        000B6
___flmul@bexp                                  cstackBANK1                        000C9
___flmul@grs                                   cstackBANK1                        000C5
___flmul@prod                                  cstackBANK1                        000CA
___flmul@sign                                  cstackBANK1                        000C3
___flmul@temp                                  cstackBANK1                        000CE
___fltol                                       text32                             0112F
___fltol@exp1                                  cstackBANK1                        000DA
___fltol@f1                                    cstackBANK1                        000D0
___fltol@sign1                                 cstackBANK1                        000D9
___int_sp                                      stack                              00000
___latbits                                     (abs)                              00003
___sp                                          stack                              00000
___stackhi                                     (abs)                              027EF
___stacklo                                     (abs)                              02154
___xxtofl                                      text31                             012E2
___xxtofl@arg                                  cstackBANK1                        000B2
___xxtofl@exp                                  cstackBANK1                        000B1
___xxtofl@sign                                 cstackBANK1                        000B0
___xxtofl@val                                  cstackBANK1                        000A8
__ccov100_end_blk0                             text72                             0270C
__ccov100_start_blk0                           text72                             02709
__ccov101_end_blk1                             text72                             0270D
__ccov101_start_blk1                           text72                             0270C
__ccov102_end_blk2                             text72                             02710
__ccov102_start_blk2                           text72                             0270D
__ccov103_end_blk3                             text72                             02711
__ccov103_start_blk3                           text72                             02710
__ccov104_end_blk4                             text72                             02714
__ccov104_start_blk4                           text72                             02711
__ccov105_end_blk0                             text58                             007FE
__ccov105_start_blk0                           text58                             007FB
__ccov106_end_blk1                             text58                             00800
__ccov106_start_blk1                           text58                             007FE
__ccov107_end_blk0                             text70                             027CA
__ccov107_start_blk0                           text70                             027BD
__ccov108_end_blk1                             text70                             027CD
__ccov108_start_blk1                           text70                             027CA
__ccov109_end_blk0                             text78                             01A7D
__ccov109_start_blk0                           text78                             01A78
__ccov10_end_blk4                              text69                             02758
__ccov10_start_blk4                            text69                             02755
__ccov110_end_blk1                             text78                             01A7E
__ccov110_start_blk1                           text78                             01A7D
__ccov111_end_blk2                             text78                             01A81
__ccov111_start_blk2                           text78                             01A7E
__ccov112_end_blk3                             text78                             01A85
__ccov112_start_blk3                           text78                             01A81
__ccov113_end_blk4                             text78                             01A86
__ccov113_start_blk4                           text78                             01A85
__ccov114_end_blk5                             text78                             01A87
__ccov114_start_blk5                           text78                             01A86
__ccov115_end_blk6                             text78                             01A88
__ccov115_start_blk6                           text78                             01A87
__ccov116_end_blk7                             text78                             01A89
__ccov116_start_blk7                           text78                             01A88
__ccov117_end_blk8                             text78                             01A8F
__ccov117_start_blk8                           text78                             01A89
__ccov118_end_blk9                             text78                             01A97
__ccov118_start_blk9                           text78                             01A8F
__ccov119_end_blk11                            text78                             01A99
__ccov119_start_blk11                          text78                             01A97
__ccov11_end_blk0                              text38                             019AE
__ccov11_start_blk0                            text38                             01996
__ccov12_end_blk1                              text38                             019B1
__ccov12_start_blk1                            text38                             019AE
__ccov13_end_blk0                              text73                             01B53
__ccov13_start_blk0                            text73                             01B4A
__ccov14_end_blk1                              text73                             01B54
__ccov14_start_blk1                            text73                             01B53
__ccov15_end_blk2                              text73                             01B5C
__ccov15_start_blk2                            text73                             01B54
__ccov164_end_blk0                             text10                             01B2D
__ccov164_start_blk0                           text10                             01B25
__ccov165_end_blk1                             text10                             01B31
__ccov165_start_blk1                           text10                             01B2D
__ccov166_end_blk2                             text10                             01B35
__ccov166_start_blk2                           text10                             01B31
__ccov167_end_blk3                             text10                             01B36
__ccov167_start_blk3                           text10                             01B35
__ccov168_end_blk4                             text10                             01B37
__ccov168_start_blk4                           text10                             01B36
__ccov169_end_blk5                             text10                             01B38
__ccov169_start_blk5                           text10                             01B37
__ccov16_end_blk3                              text73                             01B64
__ccov16_start_blk3                            text73                             01B5C
__ccov170_end_blk6                             text10                             01B3A
__ccov170_start_blk6                           text10                             01B38
__ccov171_end_blk7                             text10                             01B3C
__ccov171_start_blk7                           text10                             01B3A
__ccov172_end_blk8                             text10                             01B3D
__ccov172_start_blk8                           text10                             01B3C
__ccov173_end_blk10                            text10                             01B41
__ccov173_start_blk10                          text10                             01B3D
__ccov174_end_blk11                            text10                             01B42
__ccov174_start_blk11                          text10                             01B41
__ccov175_end_blk12                            text10                             01B48
__ccov175_start_blk12                          text10                             01B42
__ccov176_end_blk13                            text10                             01B4A
__ccov176_start_blk13                          text10                             01B48
__ccov177_end_blk0                             text14                             01825
__ccov177_start_blk0                           text14                             01821
__ccov178_end_blk1                             text14                             01829
__ccov178_start_blk1                           text14                             01825
__ccov179_end_blk2                             text14                             0182A
__ccov179_start_blk2                           text14                             01829
__ccov17_end_blk4                              text73                             01B6C
__ccov17_start_blk4                            text73                             01B64
__ccov180_end_blk3                             text14                             0182B
__ccov180_start_blk3                           text14                             0182A
__ccov181_end_blk4                             text14                             0182C
__ccov181_start_blk4                           text14                             0182B
__ccov182_end_blk5                             text14                             0182D
__ccov182_start_blk5                           text14                             0182C
__ccov183_end_blk6                             text14                             0182F
__ccov183_start_blk6                           text14                             0182D
__ccov184_end_blk8                             text14                             01832
__ccov184_start_blk8                           text14                             0182F
__ccov185_end_blk0                             text71                             01CD7
__ccov185_start_blk0                           text71                             01CD4
__ccov186_end_blk1                             text71                             01CDA
__ccov186_start_blk1                           text71                             01CD7
__ccov187_end_blk2                             text71                             01CDC
__ccov187_start_blk2                           text71                             01CDA
__ccov188_end_blk3                             text71                             01CDF
__ccov188_start_blk3                           text71                             01CDC
__ccov189_end_blk4                             text71                             01CE1
__ccov189_start_blk4                           text71                             01CDF
__ccov18_end_blk5                              text73                             01B6E
__ccov18_start_blk5                            text73                             01B6C
__ccov190_end_blk5                             text71                             01CE4
__ccov190_start_blk5                           text71                             01CE1
__ccov191_end_blk6                             text71                             01CE5
__ccov191_start_blk6                           text71                             01CE4
__ccov192_end_blk7                             text71                             01CE7
__ccov192_start_blk7                           text71                             01CE5
__ccov193_end_blk8                             text71                             01CF8
__ccov193_start_blk8                           text71                             01CE7
__ccov194_end_blk9                             text71                             01CFA
__ccov194_start_blk9                           text71                             01CF8
__ccov195_end_blk10                            text71                             01CFD
__ccov195_start_blk10                          text71                             01CFA
__ccov196_end_blk11                            text71                             01CFF
__ccov196_start_blk11                          text71                             01CFD
__ccov197_end_blk12                            text71                             01D01
__ccov197_start_blk12                          text71                             01CFF
__ccov198_end_blk13                            text71                             01D04
__ccov198_start_blk13                          text71                             01D01
__ccov199_end_blk14                            text71                             01D07
__ccov199_start_blk14                          text71                             01D04
__ccov19_end_blk6                              text73                             01B71
__ccov19_start_blk6                            text73                             01B6E
__ccov1_end_blk0                               text68                             0275F
__ccov1_start_blk0                             text68                             02758
__ccov201_end_blk0                             text64                             01964
__ccov201_start_blk0                           text64                             01960
__ccov202_end_blk1                             text64                             01965
__ccov202_start_blk1                           text64                             01964
__ccov203_end_blk2                             text64                             0196C
__ccov203_start_blk2                           text64                             01965
__ccov204_end_blk3                             text64                             0196E
__ccov204_start_blk3                           text64                             0196C
__ccov205_end_blk4                             text64                             01975
__ccov205_start_blk4                           text64                             0196E
__ccov206_end_blk5                             text64                             01978
__ccov206_start_blk5                           text64                             01975
__ccov207_end_blk6                             text64                             0197B
__ccov207_start_blk6                           text64                             01978
__ccov214_end_blk0                             text107                            01918
__ccov214_start_blk0                           text107                            01913
__ccov215_end_blk1                             text107                            01919
__ccov215_start_blk1                           text107                            01918
__ccov216_end_blk2                             text107                            0191B
__ccov216_start_blk2                           text107                            01919
__ccov217_end_blk3                             text107                            0191D
__ccov217_start_blk3                           text107                            0191B
__ccov218_end_blk4                             text107                            01922
__ccov218_start_blk4                           text107                            0191D
__ccov219_end_blk6                             text107                            01924
__ccov219_start_blk6                           text107                            01922
__ccov220_end_blk7                             text107                            01929
__ccov220_start_blk7                           text107                            01924
__ccov221_end_blk9                             text107                            0192C
__ccov221_start_blk9                           text107                            01929
__ccov228_end_blk0                             text87                             019EA
__ccov228_start_blk0                           text87                             019E8
__ccov229_end_blk1                             text87                             019F2
__ccov229_start_blk1                           text87                             019EA
__ccov230_end_blk2                             text87                             019F9
__ccov230_start_blk2                           text87                             019F2
__ccov231_end_blk3                             text87                             01A01
__ccov231_start_blk3                           text87                             019F9
__ccov232_end_blk5                             text87                             01A04
__ccov232_start_blk5                           text87                             01A01
__ccov233_end_blk0                             text65                             02727
__ccov233_start_blk0                           text65                             0271F
__ccov234_end_blk1                             text65                             0272A
__ccov234_start_blk1                           text65                             02727
__ccov235_end_blk0                             text88                             0266F
__ccov235_start_blk0                           text88                             0266C
__ccov236_end_blk0                             text66                             01A23
__ccov236_start_blk0                           text66                             01A20
__ccov237_end_blk1                             text66                             01A24
__ccov237_start_blk1                           text66                             01A23
__ccov238_end_blk2                             text66                             01A2C
__ccov238_start_blk2                           text66                             01A24
__ccov239_end_blk3                             text66                             01A2E
__ccov239_start_blk3                           text66                             01A2C
__ccov240_end_blk4                             text66                             01A30
__ccov240_start_blk4                           text66                             01A2E
__ccov241_end_blk5                             text66                             01A37
__ccov241_start_blk5                           text66                             01A30
__ccov242_end_blk6                             text66                             01A3A
__ccov242_start_blk6                           text66                             01A37
__ccov243_end_blk7                             text66                             01A3D
__ccov243_start_blk7                           text66                             01A3A
__ccov254_end_blk0                             text106                            026D6
__ccov254_start_blk0                           text106                            026D2
__ccov255_end_blk1                             text106                            026DA
__ccov255_start_blk1                           text106                            026D6
__ccov256_end_blk2                             text106                            026DD
__ccov256_start_blk2                           text106                            026DA
__ccov257_end_blk0                             text108                            019CE
__ccov257_start_blk0                           text108                            019CC
__ccov258_end_blk1                             text108                            019D2
__ccov258_start_blk1                           text108                            019CE
__ccov259_end_blk2                             text108                            019D6
__ccov259_start_blk2                           text108                            019D2
__ccov260_end_blk3                             text108                            019DD
__ccov260_start_blk3                           text108                            019D6
__ccov261_end_blk4                             text108                            019E5
__ccov261_start_blk4                           text108                            019DD
__ccov262_end_blk6                             text108                            019E8
__ccov262_start_blk6                           text108                            019E5
__ccov263_end_blk0                             text67                             0271C
__ccov263_start_blk0                           text67                             02714
__ccov264_end_blk1                             text67                             0271F
__ccov264_start_blk1                           text67                             0271C
__ccov265_end_blk0                             text109                            026CF
__ccov265_start_blk0                           text109                            026C7
__ccov266_end_blk1                             text109                            026D2
__ccov266_start_blk1                           text109                            026CF
__ccov267_end_blk0                             text61                             018A6
__ccov267_start_blk0                           text61                             018A4
__ccov268_end_blk1                             text61                             018A8
__ccov268_start_blk1                           text61                             018A6
__ccov269_end_blk2                             text61                             018A9
__ccov269_start_blk2                           text61                             018A8
__ccov270_end_blk3                             text61                             018B6
__ccov270_start_blk3                           text61                             018A9
__ccov271_end_blk4                             text61                             018B9
__ccov271_start_blk4                           text61                             018B6
__ccov294_end_blk0                             text62                             01893
__ccov294_start_blk0                           text62                             01890
__ccov295_end_blk1                             text62                             01894
__ccov295_start_blk1                           text62                             01893
__ccov296_end_blk2                             text62                             01895
__ccov296_start_blk2                           text62                             01894
__ccov297_end_blk3                             text62                             01897
__ccov297_start_blk3                           text62                             01895
__ccov298_end_blk4                             text62                             0189E
__ccov298_start_blk4                           text62                             01897
__ccov299_end_blk5                             text62                             018A1
__ccov299_start_blk5                           text62                             0189E
__ccov2_end_blk1                               text68                             02761
__ccov2_start_blk1                             text68                             0275F
__ccov300_end_blk6                             text62                             018A4
__ccov300_start_blk6                           text62                             018A1
__ccov311_end_blk0                             text80                             0187E
__ccov311_start_blk0                           text80                             0187C
__ccov312_end_blk1                             text80                             01885
__ccov312_start_blk1                           text80                             0187E
__ccov313_end_blk2                             text80                             0188D
__ccov313_start_blk2                           text80                             01885
__ccov314_end_blk4                             text80                             01890
__ccov314_start_blk4                           text80                             0188D
__ccov315_end_blk0                             text63                             02732
__ccov315_start_blk0                           text63                             0272A
__ccov316_end_blk1                             text63                             02735
__ccov316_start_blk1                           text63                             02732
__ccov317_end_blk0                             text81                             02672
__ccov317_start_blk0                           text81                             0266F
__ccov318_end_blk0                             text60                             02767
__ccov318_start_blk0                           text60                             02764
__ccov319_end_blk1                             text60                             02768
__ccov319_start_blk1                           text60                             02767
__ccov320_end_blk2                             text60                             0276A
__ccov320_start_blk2                           text60                             02768
__ccov321_end_blk3                             text60                             0276D
__ccov321_start_blk3                           text60                             0276A
__ccov322_end_blk4                             text60                             02770
__ccov322_start_blk4                           text60                             0276D
__ccov337_end_blk0                             text59                             02773
__ccov337_start_blk0                           text59                             02770
__ccov338_end_blk1                             text59                             02774
__ccov338_start_blk1                           text59                             02773
__ccov339_end_blk2                             text59                             02776
__ccov339_start_blk2                           text59                             02774
__ccov340_end_blk3                             text59                             02779
__ccov340_start_blk3                           text59                             02776
__ccov341_end_blk4                             text59                             0277C
__ccov341_start_blk4                           text59                             02779
__ccov350_end_blk0                             text2                              0269E
__ccov350_start_blk0                           text2                              02699
__ccov351_end_blk1                             text2                              026A1
__ccov351_start_blk1                           text2                              0269E
__ccov356_end_blk0                             maintext                           00535
__ccov356_start_blk0                           maintext                           0052A
__ccov357_end_blk1                             maintext                           0054F
__ccov357_start_blk1                           maintext                           00535
__ccov358_end_blk2                             maintext                           00552
__ccov358_start_blk2                           maintext                           0054F
__ccov359_end_blk3                             maintext                           00555
__ccov359_start_blk3                           maintext                           00552
__ccov360_end_blk4                             maintext                           00558
__ccov360_start_blk4                           maintext                           00555
__ccov361_end_blk5                             maintext                           0055B
__ccov361_start_blk5                           maintext                           00558
__ccov362_end_blk6                             maintext                           00563
__ccov362_start_blk6                           maintext                           0055B
__ccov363_end_blk7                             maintext                           0056B
__ccov363_start_blk7                           maintext                           00563
__ccov364_end_blk9                             maintext                           00575
__ccov364_start_blk9                           maintext                           0056B
__ccov365_end_blk11                            maintext                           0057D
__ccov365_start_blk11                          maintext                           00575
__ccov366_end_blk12                            maintext                           00584
__ccov366_start_blk12                          maintext                           0057D
__ccov367_end_blk14                            maintext                           0058A
__ccov367_start_blk14                          maintext                           00584
__ccov368_end_blk16                            maintext                           0058D
__ccov368_start_blk16                          maintext                           0058A
__ccov369_end_blk17                            maintext                           00594
__ccov369_start_blk17                          maintext                           0058D
__ccov370_end_blk18                            maintext                           00598
__ccov370_start_blk18                          maintext                           00594
__ccov371_end_blk19                            maintext                           0059B
__ccov371_start_blk19                          maintext                           00598
__ccov372_end_blk21                            maintext                           0059E
__ccov372_start_blk21                          maintext                           0059B
__ccov373_end_blk22                            maintext                           005A9
__ccov373_start_blk22                          maintext                           0059E
__ccov374_end_blk24                            maintext                           005AF
__ccov374_start_blk24                          maintext                           005A9
__ccov375_end_blk25                            maintext                           005B2
__ccov375_start_blk25                          maintext                           005AF
__ccov376_end_blk27                            maintext                           005BB
__ccov376_start_blk27                          maintext                           005B2
__ccov377_end_blk31                            maintext                           005C4
__ccov377_start_blk31                          maintext                           005BB
__ccov378_end_blk32                            maintext                           005D6
__ccov378_start_blk32                          maintext                           005C4
__ccov379_end_blk35                            maintext                           005E9
__ccov379_start_blk35                          maintext                           005D6
__ccov380_end_blk36                            maintext                           005EC
__ccov380_start_blk36                          maintext                           005E9
__ccov381_end_blk37                            maintext                           005F3
__ccov381_start_blk37                          maintext                           005EC
__ccov382_end_blk38                            maintext                           00606
__ccov382_start_blk38                          maintext                           005F3
__ccov383_end_blk39                            maintext                           0060F
__ccov383_start_blk39                          maintext                           00606
__ccov384_end_blk40                            maintext                           00616
__ccov384_start_blk40                          maintext                           0060F
__ccov385_end_blk42                            maintext                           0061B
__ccov385_start_blk42                          maintext                           00616
__ccov386_end_blk43                            maintext                           00631
__ccov386_start_blk43                          maintext                           0061B
__ccov387_end_blk45                            maintext                           00638
__ccov387_start_blk45                          maintext                           00631
__ccov388_end_blk49                            maintext                           0064E
__ccov388_start_blk49                          maintext                           00638
__ccov389_end_blk50                            maintext                           00655
__ccov389_start_blk50                          maintext                           0064E
__ccov390_end_blk51                            maintext                           00668
__ccov390_start_blk51                          maintext                           00655
__ccov391_end_blk52                            maintext                           00675
__ccov391_start_blk52                          maintext                           00668
__ccov392_end_blk53                            maintext                           0067C
__ccov392_start_blk53                          maintext                           00675
__ccov393_end_blk55                            maintext                           00681
__ccov393_start_blk55                          maintext                           0067C
__ccov394_end_blk56                            maintext                           00697
__ccov394_start_blk56                          maintext                           00681
__ccov395_end_blk58                            maintext                           0069E
__ccov395_start_blk58                          maintext                           00697
__ccov396_end_blk62                            maintext                           006A6
__ccov396_start_blk62                          maintext                           0069E
__ccov397_end_blk63                            maintext                           006A9
__ccov397_start_blk63                          maintext                           006A6
__ccov398_end_blk64                            maintext                           006B0
__ccov398_start_blk64                          maintext                           006A9
__ccov399_end_blk65                            maintext                           006B3
__ccov399_start_blk65                          maintext                           006B0
__ccov3_end_blk2                               text68                             02764
__ccov3_start_blk2                             text68                             02761
__ccov400_end_blk66                            maintext                           006BD
__ccov400_start_blk66                          maintext                           006B3
__ccov401_end_blk67                            maintext                           006C4
__ccov401_start_blk67                          maintext                           006BD
__ccov402_end_blk69                            maintext                           006C9
__ccov402_start_blk69                          maintext                           006C4
__ccov403_end_blk70                            maintext                           006D1
__ccov403_start_blk70                          maintext                           006C9
__ccov404_end_blk72                            maintext                           006D8
__ccov404_start_blk72                          maintext                           006D1
__ccov405_end_blk76                            maintext                           006E2
__ccov405_start_blk76                          maintext                           006D8
__ccov406_end_blk78                            maintext                           006F9
__ccov406_start_blk78                          maintext                           006E2
__ccov407_end_blk80                            maintext                           00701
__ccov407_start_blk80                          maintext                           006F9
__ccov408_end_blk81                            maintext                           00707
__ccov408_start_blk81                          maintext                           00701
__ccov409_end_blk0                             text19                             02791
__ccov409_start_blk0                           text19                             02788
__ccov410_end_blk1                             text19                             02794
__ccov410_start_blk1                           text19                             02791
__ccov411_end_blk0                             text21                             027F5
__ccov411_start_blk0                           text21                             027EF
__ccov412_end_blk2                             text21                             027F7
__ccov412_start_blk2                           text21                             027F5
__ccov413_end_blk4                             text21                             027FA
__ccov413_start_blk4                           text21                             027F7
__ccov414_end_blk5                             text21                             027FB
__ccov414_start_blk5                           text21                             027FA
__ccov415_end_blk6                             text21                             027FD
__ccov415_start_blk6                           text21                             027FB
__ccov416_end_blk7                             text21                             02800
__ccov416_start_blk7                           text21                             027FD
__ccov417_end_blk0                             text20                             026C4
__ccov417_start_blk0                           text20                             026BD
__ccov418_end_blk1                             text20                             026C7
__ccov418_start_blk1                           text20                             026C4
__ccov427_end_blk0                             text85                             0268B
__ccov427_start_blk0                           text85                             02689
__ccov428_end_blk1                             text85                             0268E
__ccov428_start_blk1                           text85                             0268B
__ccov429_end_blk2                             text85                             02691
__ccov429_start_blk2                           text85                             0268E
__ccov430_end_blk0                             text86                             0181C
__ccov430_start_blk0                           text86                             0181A
__ccov431_end_blk2                             text86                             0181E
__ccov431_start_blk2                           text86                             0181C
__ccov432_end_blk3                             text86                             01821
__ccov432_start_blk3                           text86                             0181E
__ccov434_end_blk1                             text84                             018C5
__ccov434_start_blk1                           text84                             018B9
__ccov435_end_blk3                             text84                             018CC
__ccov435_start_blk3                           text84                             018C5
__ccov436_end_blk4                             text84                             018CF
__ccov436_start_blk4                           text84                             018CC
__ccov447_end_blk0                             text82                             01390
__ccov447_start_blk0                           text82                             0138F
__ccov448_end_blk2                             text82                             01398
__ccov448_start_blk2                           text82                             01390
__ccov449_end_blk3                             text82                             0139D
__ccov449_start_blk3                           text82                             01398
__ccov44_end_blk0                              text52                             027D2
__ccov44_start_blk0                            text52                             027CD
__ccov450_end_blk5                             text82                             0139F
__ccov450_start_blk5                           text82                             0139D
__ccov451_end_blk6                             text82                             013A3
__ccov451_start_blk6                           text82                             0139F
__ccov452_end_blk8                             text82                             013A9
__ccov452_start_blk8                           text82                             013A3
__ccov453_end_blk9                             text82                             013B0
__ccov453_start_blk9                           text82                             013A9
__ccov454_end_blk10                            text82                             013B3
__ccov454_start_blk10                          text82                             013B0
__ccov455_end_blk11                            text82                             013BB
__ccov455_start_blk11                          text82                             013B3
__ccov456_end_blk13                            text82                             013C1
__ccov456_start_blk13                          text82                             013BB
__ccov457_end_blk14                            text82                             013CA
__ccov457_start_blk14                          text82                             013C1
__ccov458_end_blk15                            text82                             013CD
__ccov458_start_blk15                          text82                             013CA
__ccov459_end_blk16                            text82                             013D6
__ccov459_start_blk16                          text82                             013CD
__ccov45_end_blk2                              text52                             027D7
__ccov45_start_blk2                            text52                             027D2
__ccov460_end_blk18                            text82                             013DE
__ccov460_start_blk18                          text82                             013D6
__ccov461_end_blk19                            text82                             013E7
__ccov461_start_blk19                          text82                             013DE
__ccov462_end_blk20                            text82                             013EA
__ccov462_start_blk20                          text82                             013E7
__ccov463_end_blk21                            text82                             013F0
__ccov463_start_blk21                          text82                             013EA
__ccov464_end_blk22                            text82                             013F2
__ccov464_start_blk22                          text82                             013F0
__ccov465_end_blk23                            text82                             013F9
__ccov465_start_blk23                          text82                             013F2
__ccov466_end_blk24                            text82                             013FA
__ccov466_start_blk24                          text82                             013F9
__ccov467_end_blk25                            text82                             01403
__ccov467_start_blk25                          text82                             013FA
__ccov468_end_blk27                            text82                             0140B
__ccov468_start_blk27                          text82                             01403
__ccov469_end_blk31                            text82                             01411
__ccov469_start_blk31                          text82                             0140B
__ccov46_end_blk4                              text52                             027DB
__ccov46_start_blk4                            text52                             027D7
__ccov470_end_blk32                            text82                             0141C
__ccov470_start_blk32                          text82                             01411
__ccov471_end_blk34                            text82                             01425
__ccov471_start_blk34                          text82                             0141C
__ccov472_end_blk37                            text82                             0142B
__ccov472_start_blk37                          text82                             01425
__ccov473_end_blk41                            text82                             01432
__ccov473_start_blk41                          text82                             0142B
__ccov474_end_blk42                            text82                             01439
__ccov474_start_blk42                          text82                             01432
__ccov475_end_blk44                            text82                             0144E
__ccov475_start_blk44                          text82                             01439
__ccov476_end_blk46                            text82                             01451
__ccov476_start_blk46                          text82                             0144E
__ccov477_end_blk0                             text40                             02784
__ccov477_start_blk0                           text40                             0277C
__ccov478_end_blk1                             text40                             02785
__ccov478_start_blk1                           text40                             02784
__ccov479_end_blk2                             text40                             02786
__ccov479_start_blk2                           text40                             02785
__ccov47_end_blk5                              text52                             027DE
__ccov47_start_blk5                            text52                             027DB
__ccov480_end_blk3                             text40                             02788
__ccov480_start_blk3                           text40                             02786
__ccov481_end_blk0                             text56                             026BA
__ccov481_start_blk0                           text56                             026B3
__ccov482_end_blk2                             text56                             026BD
__ccov482_start_blk2                           text56                             026BA
__ccov483_end_blk0                             text41                             01050
__ccov483_start_blk0                           text41                             01047
__ccov484_end_blk1                             text41                             01055
__ccov484_start_blk1                           text41                             01050
__ccov485_end_blk2                             text41                             0105D
__ccov485_start_blk2                           text41                             01055
__ccov486_end_blk3                             text41                             01063
__ccov486_start_blk3                           text41                             0105D
__ccov487_end_blk4                             text41                             0106C
__ccov487_start_blk4                           text41                             01063
__ccov488_end_blk6                             text41                             01073
__ccov488_start_blk6                           text41                             0106C
__ccov489_end_blk7                             text41                             01079
__ccov489_start_blk7                           text41                             01073
__ccov490_end_blk9                             text41                             0107F
__ccov490_start_blk9                           text41                             01079
__ccov491_end_blk12                            text41                             01084
__ccov491_start_blk12                          text41                             0107F
__ccov492_end_blk13                            text41                             0108A
__ccov492_start_blk13                          text41                             01084
__ccov493_end_blk14                            text41                             0108E
__ccov493_start_blk14                          text41                             0108A
__ccov494_end_blk16                            text41                             01094
__ccov494_start_blk16                          text41                             0108E
__ccov495_end_blk17                            text41                             01096
__ccov495_start_blk17                          text41                             01094
__ccov496_end_blk20                            text41                             010A4
__ccov496_start_blk20                          text41                             01096
__ccov497_end_blk21                            text41                             010A8
__ccov497_start_blk21                          text41                             010A4
__ccov498_end_blk23                            text41                             010B1
__ccov498_start_blk23                          text41                             010A8
__ccov499_end_blk26                            text41                             010B6
__ccov499_start_blk26                          text41                             010B1
__ccov4_end_blk0                               text3                              019C9
__ccov4_start_blk0                             text3                              019B1
__ccov500_end_blk28                            text41                             010BA
__ccov500_start_blk28                          text41                             010B6
__ccov501_end_blk0                             text22                             0273E
__ccov501_start_blk0                           text22                             02735
__ccov502_end_blk2                             text22                             02740
__ccov502_start_blk2                           text22                             0273E
__ccov503_end_blk0                             text8                              011AF
__ccov503_start_blk0                           text8                              011A4
__ccov504_end_blk1                             text8                              011BB
__ccov504_start_blk1                           text8                              011AF
__ccov505_end_blk2                             text8                              011D9
__ccov505_start_blk2                           text8                              011BB
__ccov506_end_blk3                             text8                              011E2
__ccov506_start_blk3                           text8                              011D9
__ccov507_end_blk4                             text8                              011EE
__ccov507_start_blk4                           text8                              011E2
__ccov508_end_blk5                             text8                              011FB
__ccov508_start_blk5                           text8                              011EE
__ccov509_end_blk7                             text8                              01206
__ccov509_start_blk7                           text8                              011FB
__ccov50_end_blk0                              text51                             026A7
__ccov50_start_blk0                            text51                             026A1
__ccov510_end_blk8                             text8                              01213
__ccov510_start_blk8                           text8                              01206
__ccov511_end_blk9                             text8                              01214
__ccov511_start_blk9                           text8                              01213
__ccov512_end_blk10                            text8                              0121B
__ccov512_start_blk10                          text8                              01214
__ccov513_end_blk11                            text8                              01229
__ccov513_start_blk11                          text8                              0121B
__ccov514_end_blk13                            text8                              0122C
__ccov514_start_blk13                          text8                              01229
__ccov515_end_blk14                            text8                              0122E
__ccov515_start_blk14                          text8                              0122C
__ccov516_end_blk15                            text8                              0122F
__ccov516_start_blk15                          text8                              0122E
__ccov517_end_blk16                            text8                              01231
__ccov517_start_blk16                          text8                              0122F
__ccov518_end_blk17                            text8                              01236
__ccov518_start_blk17                          text8                              01231
__ccov51_end_blk1                              text51                             026AA
__ccov51_start_blk1                            text51                             026A7
__ccov521_end_blk0                             text15                             01879
__ccov521_start_blk0                           text15                             01869
__ccov522_end_blk2                             text15                             0187C
__ccov522_start_blk2                           text15                             01879
__ccov523_end_blk0                             text4                              01854
__ccov523_start_blk0                           text4                              01844
__ccov524_end_blk1                             text4                              01856
__ccov524_start_blk1                           text4                              01854
__ccov525_end_blk0                             text16                             02678
__ccov525_start_blk0                           text16                             02676
__ccov526_end_blk2                             text16                             0267A
__ccov526_start_blk2                           text16                             02678
__ccov527_end_blk0                             text5                              026B1
__ccov527_start_blk0                           text5                              026AA
__ccov528_end_blk1                             text5                              026B3
__ccov528_start_blk1                           text5                              026B1
__ccov529_end_blk0                             text7                              01C41
__ccov529_start_blk0                           text7                              01C19
__ccov530_end_blk2                             text7                              01C44
__ccov530_start_blk2                           text7                              01C41
__ccov531_end_blk0                             text18                             0279D
__ccov531_start_blk0                           text18                             02794
__ccov532_end_blk2                             text18                             027A0
__ccov532_start_blk2                           text18                             0279D
__ccov533_end_blk0                             text89                             01459
__ccov533_start_blk0                           text89                             01451
__ccov534_end_blk1                             text89                             0145C
__ccov534_start_blk1                           text89                             01459
__ccov535_end_blk2                             text89                             01464
__ccov535_start_blk2                           text89                             0145C
__ccov536_end_blk3                             text89                             014A8
__ccov536_start_blk3                           text89                             01464
__ccov537_end_blk4                             text89                             014B9
__ccov537_start_blk4                           text89                             014A8
__ccov538_end_blk5                             text89                             014BD
__ccov538_start_blk5                           text89                             014B9
__ccov539_end_blk6                             text89                             014D5
__ccov539_start_blk6                           text89                             014BD
__ccov540_end_blk7                             text89                             014DC
__ccov540_start_blk7                           text89                             014D5
__ccov541_end_blk8                             text89                             014F8
__ccov541_start_blk8                           text89                             014DC
__ccov542_end_blk9                             text89                             0150B
__ccov542_start_blk9                           text89                             014F8
__ccov543_end_blk11                            text89                             01513
__ccov543_start_blk11                          text89                             0150B
__ccov544_end_blk12                            text89                             01518
__ccov544_start_blk12                          text89                             01513
__ccov545_end_blk13                            text89                             0151C
__ccov545_start_blk13                          text89                             01518
__ccov546_end_blk14                            text89                             01525
__ccov546_start_blk14                          text89                             0151C
__ccov547_end_blk17                            text89                             01528
__ccov547_start_blk17                          text89                             01525
__ccov548_end_blk0                             text1                              0080D
__ccov548_start_blk0                           text1                              00806
__ccov549_end_blk1                             text1                              00812
__ccov549_start_blk1                           text1                              0080D
__ccov550_end_blk2                             text1                              00819
__ccov550_start_blk2                           text1                              00812
__ccov551_end_blk4                             text1                              0081D
__ccov551_start_blk4                           text1                              00819
__ccov552_end_blk5                             text1                              00822
__ccov552_start_blk5                           text1                              0081D
__ccov553_end_blk6                             text1                              00826
__ccov553_start_blk6                           text1                              00822
__ccov554_end_blk8                             text1                              0082E
__ccov554_start_blk8                           text1                              00826
__ccov555_end_blk9                             text1                              00832
__ccov555_start_blk9                           text1                              0082E
__ccov556_end_blk12                            text1                              00834
__ccov556_start_blk12                          text1                              00832
__ccov557_end_blk13                            text1                              00839
__ccov557_start_blk13                          text1                              00834
__ccov558_end_blk14                            text1                              00853
__ccov558_start_blk14                          text1                              00839
__ccov559_end_blk16                            text1                              0085A
__ccov559_start_blk16                          text1                              00853
__ccov560_end_blk18                            text1                              0085D
__ccov560_start_blk18                          text1                              0085A
__ccov561_end_blk0                             text6                              01CA9
__ccov561_start_blk0                           text6                              01CA2
__ccov562_end_blk1                             text6                              01CB2
__ccov562_start_blk1                           text6                              01CA9
__ccov563_end_blk2                             text6                              01CD2
__ccov563_start_blk2                           text6                              01CB2
__ccov564_end_blk3                             text6                              01CD4
__ccov564_start_blk3                           text6                              01CD2
__ccov565_end_blk0                             text17                             01B78
__ccov565_start_blk0                           text17                             01B71
__ccov566_end_blk1                             text17                             01B81
__ccov566_start_blk1                           text17                             01B78
__ccov567_end_blk2                             text17                             01B96
__ccov567_start_blk2                           text17                             01B81
__ccov568_end_blk3                             text17                             01B98
__ccov568_start_blk3                           text17                             01B96
__ccov569_end_blk0                             text12                             027B7
__ccov569_start_blk0                           text12                             027AE
__ccov56_end_blk0                              text75                             026FB
__ccov56_start_blk0                            text75                             026F3
__ccov570_end_blk1                             text12                             027BD
__ccov570_start_blk1                           text12                             027B7
__ccov571_end_blk0                             text11                             00E74
__ccov571_start_blk0                           text11                             00E70
__ccov572_end_blk2                             text11                             00E78
__ccov572_start_blk2                           text11                             00E74
__ccov573_end_blk3                             text11                             00E79
__ccov573_start_blk3                           text11                             00E78
__ccov574_end_blk7                             text11                             00E8B
__ccov574_start_blk7                           text11                             00E79
__ccov575_end_blk8                             text11                             00E8F
__ccov575_start_blk8                           text11                             00E8B
__ccov576_end_blk9                             text11                             00E98
__ccov576_start_blk9                           text11                             00E8F
__ccov577_end_blk11                            text11                             00EA0
__ccov577_start_blk11                          text11                             00E98
__ccov578_end_blk12                            text11                             00EA1
__ccov578_start_blk12                          text11                             00EA0
__ccov579_end_blk16                            text11                             00EB9
__ccov579_start_blk16                          text11                             00EA1
__ccov57_end_blk1                              text75                             026FE
__ccov57_start_blk1                            text75                             026FB
__ccov580_end_blk17                            text11                             00EBD
__ccov580_start_blk17                          text11                             00EB9
__ccov581_end_blk18                            text11                             00EC6
__ccov581_start_blk18                          text11                             00EBD
__ccov582_end_blk20                            text11                             00EE0
__ccov582_start_blk20                          text11                             00EC6
__ccov583_end_blk21                            text11                             00EE6
__ccov583_start_blk21                          text11                             00EE0
__ccov584_end_blk23                            text11                             00EF0
__ccov584_start_blk23                          text11                             00EE6
__ccov585_end_blk24                            text11                             00EF8
__ccov585_start_blk24                          text11                             00EF0
__ccov586_end_blk27                            text11                             00EFC
__ccov586_start_blk27                          text11                             00EF8
__ccov587_end_blk28                            text11                             00EFD
__ccov587_start_blk28                          text11                             00EFC
__ccov588_end_blk32                            text11                             00F0F
__ccov588_start_blk32                          text11                             00EFD
__ccov589_end_blk33                            text11                             00F13
__ccov589_start_blk33                          text11                             00F0F
__ccov58_end_blk0                              text74                             02706
__ccov58_start_blk0                            text74                             026FE
__ccov590_end_blk34                            text11                             00F1C
__ccov590_start_blk34                          text11                             00F13
__ccov591_end_blk36                            text11                             00F20
__ccov591_start_blk36                          text11                             00F1C
__ccov592_end_blk37                            text11                             00F21
__ccov592_start_blk37                          text11                             00F20
__ccov593_end_blk41                            text11                             00F39
__ccov593_start_blk41                          text11                             00F21
__ccov594_end_blk42                            text11                             00F3D
__ccov594_start_blk42                          text11                             00F39
__ccov595_end_blk43                            text11                             00F46
__ccov595_start_blk43                          text11                             00F3D
__ccov596_end_blk45                            text11                             00F54
__ccov596_start_blk45                          text11                             00F46
__ccov597_end_blk48                            text11                             00F5F
__ccov597_start_blk48                          text11                             00F54
__ccov598_end_blk52                            text11                             00F63
__ccov598_start_blk52                          text11                             00F5F
__ccov599_end_blk53                            text11                             00F64
__ccov599_start_blk53                          text11                             00F63
__ccov59_end_blk1                              text74                             02709
__ccov59_start_blk1                            text74                             02706
__ccov5_end_blk1                               text3                              019CC
__ccov5_start_blk1                             text3                              019C9
__ccov600_end_blk57                            text11                             00F76
__ccov600_start_blk57                          text11                             00F64
__ccov601_end_blk58                            text11                             00F7A
__ccov601_start_blk58                          text11                             00F76
__ccov602_end_blk59                            text11                             00F83
__ccov602_start_blk59                          text11                             00F7A
__ccov603_end_blk61                            text11                             00F8B
__ccov603_start_blk61                          text11                             00F83
__ccov604_end_blk62                            text11                             00F8C
__ccov604_start_blk62                          text11                             00F8B
__ccov605_end_blk66                            text11                             00FA4
__ccov605_start_blk66                          text11                             00F8C
__ccov606_end_blk67                            text11                             00FA8
__ccov606_start_blk67                          text11                             00FA4
__ccov607_end_blk68                            text11                             00FB1
__ccov607_start_blk68                          text11                             00FA8
__ccov608_end_blk70                            text11                             00FCC
__ccov608_start_blk70                          text11                             00FB1
__ccov609_end_blk73                            text11                             00FD7
__ccov609_start_blk73                          text11                             00FCC
__ccov60_end_blk0                              text76                             026F0
__ccov60_start_blk0                            text76                             026E8
__ccov610_end_blk77                            text11                             00FE2
__ccov610_start_blk77                          text11                             00FD7
__ccov611_end_blk79                            text11                             00FF5
__ccov611_start_blk79                          text11                             00FE2
__ccov612_end_blk81                            text11                             00FFA
__ccov612_start_blk81                          text11                             00FF5
__ccov613_end_blk83                            text11                             01000
__ccov613_start_blk83                          text11                             00FFA
__ccov614_end_blk0                             text9                              00A6E
__ccov614_start_blk0                           text9                              00A6B
__ccov615_end_blk2                             text9                              00A72
__ccov615_start_blk2                           text9                              00A6E
__ccov616_end_blk3                             text9                              00A7E
__ccov616_start_blk3                           text9                              00A72
__ccov617_end_blk4                             text9                              00A7F
__ccov617_start_blk4                           text9                              00A7E
__ccov618_end_blk8                             text9                              00AAA
__ccov618_start_blk8                           text9                              00A7F
__ccov619_end_blk9                             text9                              00AAF
__ccov619_start_blk9                           text9                              00AAA
__ccov61_end_blk1                              text76                             026F3
__ccov61_start_blk1                            text76                             026F0
__ccov620_end_blk10                            text9                              00AB8
__ccov620_start_blk10                          text9                              00AAF
__ccov621_end_blk12                            text9                              00AC3
__ccov621_start_blk12                          text9                              00AB8
__ccov622_end_blk14                            text9                              00AC7
__ccov622_start_blk14                          text9                              00AC3
__ccov623_end_blk15                            text9                              00ACF
__ccov623_start_blk15                          text9                              00AC7
__ccov624_end_blk16                            text9                              00AD0
__ccov624_start_blk16                          text9                              00ACF
__ccov625_end_blk20                            text9                              00AFB
__ccov625_start_blk20                          text9                              00AD0
__ccov626_end_blk21                            text9                              00B00
__ccov626_start_blk21                          text9                              00AFB
__ccov627_end_blk22                            text9                              00B09
__ccov627_start_blk22                          text9                              00B00
__ccov628_end_blk24                            text9                              00B14
__ccov628_start_blk24                          text9                              00B09
__ccov629_end_blk26                            text9                              00B18
__ccov629_start_blk26                          text9                              00B14
__ccov62_end_blk0                              text77                             026E0
__ccov62_start_blk0                            text77                             026DD
__ccov630_end_blk27                            text9                              00B24
__ccov630_start_blk27                          text9                              00B18
__ccov631_end_blk28                            text9                              00B25
__ccov631_start_blk28                          text9                              00B24
__ccov632_end_blk32                            text9                              00B50
__ccov632_start_blk32                          text9                              00B25
__ccov633_end_blk33                            text9                              00B55
__ccov633_start_blk33                          text9                              00B50
__ccov634_end_blk34                            text9                              00B5E
__ccov634_start_blk34                          text9                              00B55
__ccov635_end_blk36                            text9                              00B69
__ccov635_start_blk36                          text9                              00B5E
__ccov636_end_blk38                            text9                              00B74
__ccov636_start_blk38                          text9                              00B69
__ccov637_end_blk40                            text9                              00B87
__ccov637_start_blk40                          text9                              00B74
__ccov638_end_blk42                            text9                              00B8D
__ccov638_start_blk42                          text9                              00B87
__ccov639_end_blk0                             text37                             018EC
__ccov639_start_blk0                           text37                             018E5
__ccov63_end_blk1                              text77                             026E1
__ccov63_start_blk1                            text77                             026E0
__ccov640_end_blk1                             text37                             018F1
__ccov640_start_blk1                           text37                             018EC
__ccov641_end_blk2                             text37                             018F5
__ccov641_start_blk2                           text37                             018F1
__ccov642_end_blk5                             text37                             018F8
__ccov642_start_blk5                           text37                             018F5
__ccov643_end_blk8                             text37                             018FB
__ccov643_start_blk8                           text37                             018F8
__ccov644_end_blk0                             text29                             01DAF
__ccov644_start_blk0                           text29                             01D74
__ccov645_end_blk1                             text29                             01DB6
__ccov645_start_blk1                           text29                             01DAF
__ccov646_end_blk3                             text29                             01DB9
__ccov646_start_blk3                           text29                             01DB6
__ccov647_end_blk0                             text30                             01D71
__ccov647_start_blk0                           text30                             01D3D
__ccov648_end_blk1                             text30                             01D72
__ccov648_start_blk1                           text30                             01D71
__ccov649_end_blk3                             text30                             01D74
__ccov649_start_blk3                           text30                             01D72
__ccov64_end_blk2                              text77                             026E2
__ccov64_start_blk2                            text77                             026E1
__ccov650_end_blk0                             text28                             01C16
__ccov650_start_blk0                           text28                             01BEE
__ccov651_end_blk2                             text28                             01C19
__ccov651_start_blk2                           text28                             01C16
__ccov652_end_blk0                             text35                             01E09
__ccov652_start_blk0                           text35                             01E02
__ccov653_end_blk1                             text35                             01E12
__ccov653_start_blk1                           text35                             01E09
__ccov654_end_blk2                             text35                             01E1B
__ccov654_start_blk2                           text35                             01E12
__ccov655_end_blk3                             text35                             01E22
__ccov655_start_blk3                           text35                             01E1B
__ccov656_end_blk5                             text35                             01E2B
__ccov656_start_blk5                           text35                             01E22
__ccov657_end_blk8                             text35                             01E30
__ccov657_start_blk8                           text35                             01E2B
__ccov658_end_blk11                            text35                             01E39
__ccov658_start_blk11                          text35                             01E30
__ccov659_end_blk12                            text35                             01E42
__ccov659_start_blk12                          text35                             01E39
__ccov65_end_blk3                              text77                             026E3
__ccov65_start_blk3                            text77                             026E2
__ccov660_end_blk13                            text35                             01E48
__ccov660_start_blk13                          text35                             01E42
__ccov661_end_blk21                            text35                             01E4B
__ccov661_start_blk21                          text35                             01E48
__ccov662_end_blk0                             text24                             01AEA
__ccov662_start_blk0                           text24                             01ADE
__ccov663_end_blk1                             text24                             01AF5
__ccov663_start_blk1                           text24                             01AEA
__ccov664_end_blk2                             text24                             01AFD
__ccov664_start_blk2                           text24                             01AF5
__ccov665_end_blk3                             text24                             01AFF
__ccov665_start_blk3                           text24                             01AFD
__ccov666_end_blk4                             text24                             01B01
__ccov666_start_blk4                           text24                             01AFF
__ccov667_end_blk0                             text26                             01EA1
__ccov667_start_blk0                           text26                             01E9A
__ccov668_end_blk1                             text26                             01EAC
__ccov668_start_blk1                           text26                             01EA1
__ccov669_end_blk2                             text26                             01EB4
__ccov669_start_blk2                           text26                             01EAC
__ccov66_end_blk4                              text77                             026E5
__ccov66_start_blk4                            text77                             026E3
__ccov670_end_blk4                             text26                             01EBF
__ccov670_start_blk4                           text26                             01EB4
__ccov671_end_blk6                             text26                             01ECC
__ccov671_start_blk6                           text26                             01EBF
__ccov672_end_blk7                             text26                             01ED4
__ccov672_start_blk7                           text26                             01ECC
__ccov673_end_blk8                             text26                             01ED7
__ccov673_start_blk8                           text26                             01ED4
__ccov674_end_blk9                             text26                             01EDC
__ccov674_start_blk9                           text26                             01ED7
__ccov675_end_blk11                            text26                             01EE7
__ccov675_start_blk11                          text26                             01EDC
__ccov676_end_blk12                            text26                             01EEA
__ccov676_start_blk12                          text26                             01EE7
__ccov677_end_blk13                            text26                             01EED
__ccov677_start_blk13                          text26                             01EEA
__ccov67_end_blk5                              text77                             026E8
__ccov67_start_blk5                            text77                             026E5
__ccov684_end_blk0                             text27                             01F16
__ccov684_start_blk0                           text27                             01EED
__ccov685_end_blk1                             text27                             01F23
__ccov685_start_blk1                           text27                             01F16
__ccov686_end_blk2                             text27                             01F2C
__ccov686_start_blk2                           text27                             01F23
__ccov687_end_blk4                             text27                             01F2F
__ccov687_start_blk4                           text27                             01F2C
__ccov688_end_blk5                             text27                             01F3A
__ccov688_start_blk5                           text27                             01F2F
__ccov689_end_blk6                             text27                             01F3D
__ccov689_start_blk6                           text27                             01F3A
__ccov690_end_blk7                             text27                             01F40
__ccov690_start_blk7                           text27                             01F3D
__ccov691_end_blk8                             text27                             01F43
__ccov691_start_blk8                           text27                             01F40
__ccov692_end_blk0                             text36                             02674
__ccov692_start_blk0                           text36                             02672
__ccov693_end_blk2                             text36                             02676
__ccov693_start_blk2                           text36                             02674
__ccov694_end_blk0                             text25                             027EC
__ccov694_start_blk0                           text25                             027DE
__ccov695_end_blk2                             text25                             027EF
__ccov695_start_blk2                           text25                             027EC
__ccov696_end_blk0                             text23                             01842
__ccov696_start_blk0                           text23                             01832
__ccov697_end_blk1                             text23                             01844
__ccov697_start_blk1                           text23                             01842
__ccov698_end_blk0                             text105                            01910
__ccov698_start_blk0                           text105                            018FB
__ccov699_end_blk1                             text105                            01913
__ccov699_start_blk1                           text105                            01910
__ccov6_end_blk0                               text69                             0274F
__ccov6_start_blk0                             text69                             0274C
__ccov700_end_blk0                             text114                            027A4
__ccov700_start_blk0                           text114                            027A0
__ccov701_end_blk2                             text114                            027A9
__ccov701_start_blk2                           text114                            027A4
__ccov702_end_blk4                             text114                            027AC
__ccov702_start_blk4                           text114                            027A9
__ccov703_end_blk5                             text114                            027AE
__ccov703_start_blk5                           text114                            027AC
__ccov704_end_blk0                             text113                            02686
__ccov704_start_blk0                           text113                            02681
__ccov705_end_blk1                             text113                            02689
__ccov705_start_blk1                           text113                            02686
__ccov706_end_blk0                             text104                            0267E
__ccov706_start_blk0                           text104                            0267A
__ccov707_end_blk1                             text104                            02681
__ccov707_start_blk1                           text104                            0267E
__ccov708_end_blk0                             text83                             02697
__ccov708_start_blk0                           text83                             02691
__ccov709_end_blk1                             text83                             02699
__ccov709_start_blk1                           text83                             02697
__ccov710_end_blk0                             text99                             02749
__ccov710_start_blk0                           text99                             02740
__ccov711_end_blk2                             text99                             0274C
__ccov711_start_blk2                           text99                             02749
__ccov77_end_blk0                              text39                             01A48
__ccov77_start_blk0                            text39                             01A3D
__ccov78_end_blk1                              text39                             01A49
__ccov78_start_blk1                            text39                             01A48
__ccov79_end_blk2                              text39                             01A4D
__ccov79_start_blk2                            text39                             01A49
__ccov7_end_blk1                               text69                             02750
__ccov7_start_blk1                             text69                             0274F
__ccov80_end_blk3                              text39                             01A4F
__ccov80_start_blk3                            text39                             01A4D
__ccov81_end_blk5                              text39                             01A53
__ccov81_start_blk5                            text39                             01A4F
__ccov82_end_blk7                              text39                             01A57
__ccov82_start_blk7                            text39                             01A53
__ccov83_end_blk9                              text39                             01A5A
__ccov83_start_blk9                            text39                             01A57
__ccov86_end_blk0                              intentry                           0000B
__ccov86_start_blk0                            intentry                           00004
__ccov87_end_blk1                              intentry                           00011
__ccov87_start_blk1                            intentry                           0000B
__ccov88_end_blk2                              intentry                           00016
__ccov88_start_blk2                            intentry                           00011
__ccov89_end_blk3                              intentry                           0001C
__ccov89_start_blk3                            intentry                           00016
__ccov8_end_blk2                               text69                             02751
__ccov8_start_blk2                             text69                             02750
__ccov90_end_blk4                              intentry                           00021
__ccov90_start_blk4                            intentry                           0001C
__ccov91_end_blk5                              intentry                           00027
__ccov91_start_blk5                            intentry                           00021
__ccov92_end_blk6                              intentry                           0002D
__ccov92_start_blk6                            intentry                           00027
__ccov93_end_blk7                              intentry                           00032
__ccov93_start_blk7                            intentry                           0002D
__ccov94_end_blk8                              intentry                           00038
__ccov94_start_blk8                            intentry                           00032
__ccov95_end_blk9                              intentry                           0003E
__ccov95_start_blk9                            intentry                           00038
__ccov96_end_blk14                             intentry                           00040
__ccov96_start_blk14                           intentry                           0003E
__ccov97_end_blk16                             intentry                           00044
__ccov97_start_blk16                           intentry                           00040
__ccov98_end_blk0                              text57                             01C6E
__ccov98_start_blk0                            text57                             01C44
__ccov99_end_blk1                              text57                             01C71
__ccov99_start_blk1                            text57                             01C6E
__ccov9_end_blk3                               text69                             02755
__ccov9_start_blk3                             text69                             02751
__ccovbit0_37                                  bitbssBANK1                        0074B
__ccovbit0_49                                  bitbssBANK1                        0073F
__ccovbit10_144                                bitbssBANK2                        00908
__ccovbit11_105                                bitbssBANK2                        0092F
__ccovbit11_114                                bitbssBANK2                        00926
__ccovbit11_163                                bitbssBANK3                        00EB4
__ccovbit11_26                                 bitbssBANK1                        00756
__ccovbit11_80                                 bitbssBANK1                        00720
__ccovbit12_145                                bitbssBANK2                        00907
__ccovbit12_164                                bitbssBANK3                        00EB3
__ccovbit12_53                                 bitbssBANK1                        0073B
__ccovbit13_165                                bitbssBANK3                        00EB2
__ccovbit13_172                                bitbssBANK3                        00EAB
__ccovbit13_27                                 bitbssBANK1                        00755
__ccovbit14_115                                bitbssBANK2                        00925
__ccovbit14_122                                bitbssBANK2                        0091E
__ccovbit14_20                                 bitbssBANK1                        0075C
__ccovbit14_29                                 bitbssBANK1                        00753
__ccovbit14_54                                 bitbssBANK1                        0073A
__ccovbit14_81                                 bitbssBANK2                        00947
__ccovbit14_97                                 bitbssBANK2                        00937
__ccovbit16_123                                bitbssBANK2                        0091D
__ccovbit16_21                                 bitbssBANK1                        0075B
__ccovbit16_82                                 bitbssBANK2                        00946
__ccovbit16_98                                 bitbssBANK2                        00936
__ccovbit17_106                                bitbssBANK2                        0092E
__ccovbit17_116                                bitbssBANK2                        00924
__ccovbit17_99                                 bitbssBANK2                        00935
__ccovbit18_124                                bitbssBANK2                        0091C
__ccovbit18_129                                bitbssBANK2                        00917
__ccovbit18_83                                 bitbssBANK2                        00945
__ccovbit19_84                                 bitbssBANK2                        00944
__ccovbit1_10                                  bitbssBANK0                        00376
__ccovbit1_108                                 bitbssBANK2                        0092C
__ccovbit1_110                                 bitbssBANK2                        0092A
__ccovbit1_127                                 bitbssBANK2                        00919
__ccovbit1_13                                  bitbssBANK0                        00373
__ccovbit1_158                                 bitbssBANK3                        00EB9
__ccovbit1_168                                 bitbssBANK3                        00EAF
__ccovbit1_177                                 bitbssBANK3                        00EA6
__ccovbit1_178                                 bitbssBANK3                        00EA5
__ccovbit1_180                                 bitbssBANK3                        00EA3
__ccovbit1_181                                 bitbssBANK3                        00EA2
__ccovbit1_182                                 bitbssBANK3                        00EA1
__ccovbit1_2                                   bitbssBANK0                        0037E
__ccovbit1_22                                  bitbssBANK1                        0075A
__ccovbit1_24                                  bitbssBANK1                        00758
__ccovbit1_25                                  bitbssBANK1                        00757
__ccovbit1_36                                  bitbssBANK1                        0074C
__ccovbit1_4                                   bitbssBANK0                        0037C
__ccovbit1_42                                  bitbssBANK1                        00746
__ccovbit1_43                                  bitbssBANK1                        00745
__ccovbit1_48                                  bitbssBANK1                        00740
__ccovbit1_52                                  bitbssBANK1                        0073C
__ccovbit1_7                                   bitbssBANK0                        00379
__ccovbit1_70                                  bitbssBANK1                        0072A
__ccovbit1_72                                  bitbssBANK1                        00728
__ccovbit1_8                                   bitbssBANK0                        00378
__ccovbit1_9                                   bitbssBANK0                        00377
__ccovbit20_130                                bitbssBANK2                        00916
__ccovbit21_100                                bitbssBANK2                        00934
__ccovbit21_131                                bitbssBANK2                        00915
__ccovbit21_166                                bitbssBANK3                        00EB1
__ccovbit22_146                                bitbssBANK2                        00906
__ccovbit22_55                                 bitbssBANK1                        00739
__ccovbit23_101                                bitbssBANK2                        00933
__ccovbit23_132                                bitbssBANK2                        00914
__ccovbit24_133                                bitbssBANK2                        00913
__ccovbit24_147                                bitbssBANK2                        00905
__ccovbit25_56                                 bitbssBANK1                        00738
__ccovbit25_85                                 bitbssBANK2                        00943
__ccovbit27_86                                 bitbssBANK2                        00942
__ccovbit28_102                                bitbssBANK2                        00932
__ccovbit2_1                                   bitbssBANK0                        0037F
__ccovbit2_103                                 bitbssBANK2                        00931
__ccovbit2_107                                 bitbssBANK2                        0092D
__ccovbit2_109                                 bitbssBANK2                        0092B
__ccovbit2_111                                 bitbssBANK2                        00929
__ccovbit2_112                                 bitbssBANK2                        00928
__ccovbit2_117                                 bitbssBANK2                        00923
__ccovbit2_14                                  bitbssBANK0                        00372
__ccovbit2_152                                 bitbssBANK2                        00900
__ccovbit2_157                                 bitbssBANK3                        00EBA
__ccovbit2_159                                 bitbssBANK3                        00EB8
__ccovbit2_169                                 bitbssBANK3                        00EAE
__ccovbit2_173                                 bitbssBANK3                        00EAA
__ccovbit2_175                                 bitbssBANK3                        00EA8
__ccovbit2_176                                 bitbssBANK3                        00EA7
__ccovbit2_183                                 bitbssBANK3                        00EA0
__ccovbit2_39                                  bitbssBANK1                        00749
__ccovbit2_46                                  bitbssBANK1                        00742
__ccovbit2_73                                  bitbssBANK1                        00727
__ccovbit2_76                                  bitbssBANK1                        00724
__ccovbit2_93                                  bitbssBANK2                        0093B
__ccovbit32_57                                 bitbssBANK1                        00737
__ccovbit32_87                                 bitbssBANK2                        00941
__ccovbit34_134                                bitbssBANK2                        00912
__ccovbit34_148                                bitbssBANK2                        00904
__ccovbit34_88                                 bitbssBANK2                        00940
__ccovbit36_149                                bitbssBANK2                        00903
__ccovbit37_89                                 bitbssBANK2                        0093F
__ccovbit38_150                                bitbssBANK2                        00902
__ccovbit3_125                                 bitbssBANK2                        0091B
__ccovbit3_126                                 bitbssBANK2                        0091A
__ccovbit3_15                                  bitbssBANK0                        00371
__ccovbit3_155                                 bitbssBANK3                        00EBC
__ccovbit3_156                                 bitbssBANK3                        00EBB
__ccovbit3_160                                 bitbssBANK3                        00EB7
__ccovbit3_34                                  bitbssBANK1                        0074E
__ccovbit3_74                                  bitbssBANK1                        00726
__ccovbit3_77                                  bitbssBANK1                        00723
__ccovbit3_92                                  bitbssBANK2                        0093C
__ccovbit40_58                                 bitbssBANK1                        00736
__ccovbit42_151                                bitbssBANK2                        00901
__ccovbit42_90                                 bitbssBANK2                        0093E
__ccovbit43_135                                bitbssBANK2                        00911
__ccovbit43_59                                 bitbssBANK1                        00735
__ccovbit45_136                                bitbssBANK2                        00910
__ccovbit45_60                                 bitbssBANK1                        00734
__ccovbit46_91                                 bitbssBANK2                        0093D
__ccovbit48_137                                bitbssBANK2                        0090F
__ccovbit4_118                                 bitbssBANK2                        00922
__ccovbit4_167                                 bitbssBANK3                        00EB0
__ccovbit4_170                                 bitbssBANK3                        00EAD
__ccovbit4_23                                  bitbssBANK1                        00759
__ccovbit4_3                                   bitbssBANK0                        0037D
__ccovbit4_31                                  bitbssBANK1                        00751
__ccovbit4_40                                  bitbssBANK1                        00748
__ccovbit4_44                                  bitbssBANK1                        00744
__ccovbit4_47                                  bitbssBANK1                        00741
__ccovbit4_50                                  bitbssBANK1                        0073E
__ccovbit4_51                                  bitbssBANK1                        0073D
__ccovbit4_75                                  bitbssBANK1                        00725
__ccovbit4_94                                  bitbssBANK2                        0093A
__ccovbit53_61                                 bitbssBANK1                        00733
__ccovbit56_62                                 bitbssBANK1                        00732
__ccovbit58_63                                 bitbssBANK1                        00731
__ccovbit59_138                                bitbssBANK2                        0090E
__ccovbit5_104                                 bitbssBANK2                        00930
__ccovbit5_11                                  bitbssBANK0                        00375
__ccovbit5_153                                 bitbssBANK3                        00EBE
__ccovbit5_16                                  bitbssBANK0                        00370
__ccovbit5_161                                 bitbssBANK3                        00EB6
__ccovbit5_179                                 bitbssBANK3                        00EA4
__ccovbit5_35                                  bitbssBANK1                        0074D
__ccovbit5_6                                   bitbssBANK0                        0037A
__ccovbit67_64                                 bitbssBANK1                        00730
__ccovbit68_139                                bitbssBANK2                        0090D
__ccovbit6_119                                 bitbssBANK2                        00921
__ccovbit6_17                                  bitbssBANK1                        0075F
__ccovbit6_30                                  bitbssBANK1                        00752
__ccovbit6_41                                  bitbssBANK1                        00747
__ccovbit6_45                                  bitbssBANK1                        00743
__ccovbit6_5                                   bitbssBANK0                        0037B
__ccovbit6_78                                  bitbssBANK1                        00722
__ccovbit70_140                                bitbssBANK2                        0090C
__ccovbit70_65                                 bitbssBANK1                        0072F
__ccovbit72_66                                 bitbssBANK1                        0072E
__ccovbit73_141                                bitbssBANK2                        0090B
__ccovbit76_67                                 bitbssBANK1                        0072D
__ccovbit77_142                                bitbssBANK2                        0090A
__ccovbit7_32                                  bitbssBANK1                        00750
__ccovbit7_38                                  bitbssBANK1                        0074A
__ccovbit7_71                                  bitbssBANK1                        00729
__ccovbit7_95                                  bitbssBANK2                        00939
__ccovbit80_68                                 bitbssBANK1                        0072C
__ccovbit81_69                                 bitbssBANK1                        0072B
__ccovbit83_143                                bitbssBANK2                        00909
__ccovbit8_120                                 bitbssBANK2                        00920
__ccovbit8_154                                 bitbssBANK3                        00EBD
__ccovbit8_162                                 bitbssBANK3                        00EB5
__ccovbit8_174                                 bitbssBANK3                        00EA9
__ccovbit8_18                                  bitbssBANK1                        0075E
__ccovbit8_28                                  bitbssBANK1                        00754
__ccovbit9_113                                 bitbssBANK2                        00927
__ccovbit9_12                                  bitbssBANK0                        00374
__ccovbit9_121                                 bitbssBANK2                        0091F
__ccovbit9_128                                 bitbssBANK2                        00918
__ccovbit9_171                                 bitbssBANK3                        00EAC
__ccovbit9_19                                  bitbssBANK1                        0075D
__ccovbit9_33                                  bitbssBANK1                        0074F
__ccovbit9_79                                  bitbssBANK1                        00721
__ccovbit9_96                                  bitbssBANK2                        00938
__end_of_ADC_GetConversion                     text39                             01A5A
__end_of_ADC_Initialize                        text77                             026E8
__end_of_DATAEE_ReadByte                       text14                             01832
__end_of_DATAEE_WriteByte                      text10                             01B4A
__end_of_EUSART_Initialize                     text73                             01B71
__end_of_EUSART_SetErrorHandler                text76                             026F3
__end_of_EUSART_SetFramingErrorHandler         text75                             026FE
__end_of_EUSART_SetOverrunErrorHandler         text74                             02709
__end_of_EUSART_Write                          text52                             027DE
__end_of_FLASH_ReadWord                        text78                             01A99
__end_of_INTERRUPT_InterruptManager            intentry                           00044
__end_of_OSCILLATOR_Initialize                 text72                             02714
__end_of_PIN_MANAGER_Initialize                text71                             01D07
__end_of_PMD_Initialize                        text70                             027CD
__end_of_PWM5_Initialize                       text69                             02758
__end_of_PWM5_LoadDutyValue                    text38                             019B1
__end_of_PWM6_Initialize                       text68                             02764
__end_of_PWM6_LoadDutyValue                    text3                              019CC
__end_of_SYSTEM_Initialize                     text57                             01C71
__end_of_TMR0_DefaultInterruptHandler          text109                            026D2
__end_of_TMR0_ISR                              text108                            019E8
__end_of_TMR0_Initialize                       text66                             01A3D
__end_of_TMR0_Reload                           text106                            026DD
__end_of_TMR0_SetInterruptHandler              text67                             0271F
__end_of_TMR1_DefaultInterruptHandler          text88                             0266F
__end_of_TMR1_ISR                              text87                             01A04
__end_of_TMR1_Initialize                       text64                             0197B
__end_of_TMR1_SetInterruptHandler              text65                             0272A
__end_of_TMR1_WriteTimer                       text107                            0192C
__end_of_TMR2_DefaultInterruptHandler          text81                             02672
__end_of_TMR2_ISR                              text80                             01890
__end_of_TMR2_Initialize                       text62                             018A4
__end_of_TMR2_SetInterruptHandler              text63                             02735
__end_of_TMR3_Initialize                       text61                             018B9
__end_of_TMR4_Initialize                       text60                             02770
__end_of_TMR6_Initialize                       text59                             0277C
__end_of_TMR6_LoadPeriodRegister               text2                              026A1
__end_of_WDT_Initialize                        text58                             00800
__end_of__Umul8_16                             text34                             01B25
__end_of___aodiv                               text55                             00962
__end_of___aomod                               text54                             016FF
__end_of___fleq                                text13                             01E9A
__end_of___flmul                               text33                             002D3
__end_of___fltol                               text32                             011A4
__end_of___xxtofl                              text31                             0138F
__end_of__initialization                       cinit                              00078
__end_of_abs                                   text53                             01A20
__end_of_button_check                          text41                             010BA
__end_of_button_init                           text40                             02788
__end_of_button_is_pressed                     text56                             026BD
__end_of_dtoa                                  text46                             00CFE
__end_of_eeprom_read_error_handler             text12                             027BD
__end_of_fputc                                 text50                             01E02
__end_of_fputs                                 text49                             01BEE
__end_of_frequency_calculation                 text89                             01528
__end_of_fuel_calibration                      text27                             01F43
__end_of_fuel_get                              text26                             01EED
__end_of_fuel_get_corr                         text25                             027EF
__end_of_fuel_init                             text24                             01B01
__end_of_fuel_low_check                        text35                             01E4B
__end_of_fuel_percent_calculate                text30                             01D74
__end_of_fuel_pwm_calculate                    text29                             01DB9
__end_of_fuel_set_corr                         text23                             01844
__end_of_fuel_set_low                          text37                             018FB
__end_of_fuel_uint_to_float                    text28                             01C19
__end_of_is_fuel_low                           text36                             02676
__end_of_is_moving                             text22                             02740
__end_of_led_indicate                          text82                             01451
__end_of_led_init                              text21                             02800
__end_of_led_off                               text86                             01821
__end_of_led_on                                text85                             02691
__end_of_led_set_mode                          text20                             026C7
__end_of_led_toggle                            text84                             018CF
__end_of_main                                  maintext                           00709
__end_of_menu_change                           text19                             02794
__end_of_pad                                   text47                             01FA1
__end_of_printf                                text43                             018E5
__end_of_putch                                 text51                             026AA
__end_of_puts                                  text42                             01ABB
__end_of_read_correction                       text11                             01000
__end_of_spd_a_calibration                     text17                             01B98
__end_of_spd_adc_to_u8                         text18                             027A0
__end_of_spd_get_a_corr                        text16                             0267A
__end_of_spd_get_k_corr                        text15                             0187C
__end_of_spd_init                              text8                              01236
__end_of_spd_k_calibration                     text6                              01CD4
__end_of_spd_set_a_corr                        text5                              026B3
__end_of_spd_set_k_corr                        text4                              01856
__end_of_spd_test_pwm                          text1                              0085D
__end_of_spd_uint_to_float                     text7                              01C44
__end_of_strlen                                text48                             01996
__end_of_vfpfcnvrt                             text45                             00A6B
__end_of_vfprintf                              text44                             01D3D
__end_of_write_correction                      text9                              00B8D
__end_ofi1_EUSART_Write                        text114                            027AE
__end_ofi1_PWM6_LoadDutyValue                  text105                            01913
__end_ofi1_TMR6_LoadPeriodRegister             text104                            02681
__end_ofi1__Umul8_16                           text103                            01ADE
__end_ofi1___aodiv                             text98                             01800
__end_ofi1___aomod                             text97                             01612
__end_ofi1___flmul                             text102                            0052A
__end_ofi1___fltol                             text101                            0112F
__end_ofi1___xxtofl                            text100                            012E2
__end_ofi1_abs                                 text96                             01946
__end_ofi1_dtoa                                text93                             00E70
__end_ofi1_fputc                               text112                            01047
__end_ofi1_fputs                               text111                            01BC3
__end_ofi1_is_moving                           text99                             0274C
__end_ofi1_led_set_mode                        text83                             02699
__end_ofi1_pad                                 text94                             02000
__end_ofi1_printf                              text90                             01869
__end_ofi1_putch                               text113                            02689
__end_ofi1_puts                                text110                            01A78
__end_ofi1_strlen                              text95                             01960
__end_ofi1_vfpfcnvrt                           text92                             007FB
__end_ofi1_vfprintf                            text91                             01CA2
__initialization                               cinit                              00046
__pbitbssBANK0                                 bitbssBANK0                        00370
__pbitbssBANK1                                 bitbssBANK1                        00720
__pbitbssBANK2                                 bitbssBANK2                        00900
__pbitbssBANK3                                 bitbssBANK3                        00EA0
__pbssBANK1                                    bssBANK1                           000EC
__pbssBANK2                                    bssBANK2                           00157
__pbssBANK3                                    bssBANK3                           001A0
__pcodecov_info                                codecov_info                       00000
__pcodecov_info_hdr                            codecov_info_hdr                   00000
__pcstackBANK0                                 cstackBANK0                        00020
__pcstackBANK1                                 cstackBANK1                        000A0
__pcstackBANK2                                 cstackBANK2                        00129
__pcstackBANK4                                 cstackBANK4                        00220
__pcstackCOMMON                                cstackCOMMON                       00070
__pdataBANK2                                   dataBANK2                          0016F
__pidataBANK2                                  idataBANK2                         01000
__pintentry                                    intentry                           00004
__pjmp_tab__button_check                       jmp_tab__button_check              02289
__pjmp_tab__dtoa                               jmp_tab__dtoa                      02297
__pjmp_tab__eeprom_read_error_handler          jmp_tab__eeprom_read_error_handler 02291
__pjmp_tab__pad                                jmp_tab__pad                       02299
__pjmp_tab__printf                             jmp_tab__printf                    02285
__pjmp_tab__puts                               jmp_tab__puts                      01800
__pjmp_tab__read_correction                    jmp_tab__read_correction           0228D
__pjmp_tab__spd_init                           jmp_tab__spd_init                  00002
__pjmp_tab__vfpfcnvrt                          jmp_tab__vfpfcnvrt                 02295
__pjmp_tab__vfprintf                           jmp_tab__vfprintf                  02293
__pjmp_tab__write_correction                   jmp_tab__write_correction          0227B
__pmaintext                                    maintext                           0052A
__pnvBANK2                                     nvBANK2                            0016D
__pnvBANK3                                     nvBANK3                            001D8
__pstringtext1                                 stringtext1                        02000
__pstringtext10                                stringtext10                       0215F
__pstringtext11                                stringtext11                       02180
__pstringtext12                                stringtext12                       0219F
__pstringtext13                                stringtext13                       021BD
__pstringtext14                                stringtext14                       021DA
__pstringtext15                                stringtext15                       021F7
__pstringtext16                                stringtext16                       02214
__pstringtext17                                stringtext17                       02230
__pstringtext18                                stringtext18                       0224B
__pstringtext19                                stringtext19                       02264
__pstringtext2                                 stringtext2                        02030
__pstringtext20                                stringtext20                       02800
__pstringtext21                                stringtext21                       0280D
__pstringtext22                                stringtext22                       00000
__pstringtext3                                 stringtext3                        0205E
__pstringtext4                                 stringtext4                        0208A
__pstringtext5                                 stringtext5                        020B1
__pstringtext6                                 stringtext6                        020D7
__pstringtext7                                 stringtext7                        020FB
__pstringtext8                                 stringtext8                        0211D
__pstringtext9                                 stringtext9                        0213E
__ptext1                                       text1                              00806
__ptext10                                      text10                             01B25
__ptext100                                     text100                            01236
__ptext101                                     text101                            010BA
__ptext102                                     text102                            002D3
__ptext103                                     text103                            01ABB
__ptext104                                     text104                            0267A
__ptext105                                     text105                            018FB
__ptext106                                     text106                            026D2
__ptext107                                     text107                            01913
__ptext108                                     text108                            019CC
__ptext109                                     text109                            026C7
__ptext11                                      text11                             00E70
__ptext110                                     text110                            01A5A
__ptext111                                     text111                            01B98
__ptext112                                     text112                            01001
__ptext113                                     text113                            02681
__ptext114                                     text114                            027A0
__ptext12                                      text12                             027AE
__ptext13                                      text13                             01E4B
__ptext14                                      text14                             01821
__ptext15                                      text15                             01869
__ptext16                                      text16                             02676
__ptext17                                      text17                             01B71
__ptext18                                      text18                             02794
__ptext19                                      text19                             02788
__ptext2                                       text2                              02699
__ptext20                                      text20                             026BD
__ptext21                                      text21                             027EF
__ptext22                                      text22                             02735
__ptext23                                      text23                             01832
__ptext24                                      text24                             01ADE
__ptext25                                      text25                             027DE
__ptext26                                      text26                             01E9A
__ptext27                                      text27                             01EED
__ptext28                                      text28                             01BEE
__ptext29                                      text29                             01D74
__ptext3                                       text3                              019B1
__ptext30                                      text30                             01D3D
__ptext31                                      text31                             012E2
__ptext32                                      text32                             0112F
__ptext33                                      text33                             0007C
__ptext34                                      text34                             01B01
__ptext35                                      text35                             01E02
__ptext36                                      text36                             02672
__ptext37                                      text37                             018E5
__ptext38                                      text38                             01996
__ptext39                                      text39                             01A3D
__ptext4                                       text4                              01844
__ptext40                                      text40                             0277C
__ptext41                                      text41                             01047
__ptext42                                      text42                             01A99
__ptext43                                      text43                             018CF
__ptext44                                      text44                             01D07
__ptext45                                      text45                             00962
__ptext46                                      text46                             00B8D
__ptext47                                      text47                             01F43
__ptext48                                      text48                             0197B
__ptext49                                      text49                             01BC3
__ptext5                                       text5                              026AA
__ptext50                                      text50                             01DB9
__ptext51                                      text51                             026A1
__ptext52                                      text52                             027CD
__ptext53                                      text53                             01A04
__ptext54                                      text54                             01612
__ptext55                                      text55                             0085D
__ptext56                                      text56                             026B3
__ptext57                                      text57                             01C44
__ptext58                                      text58                             007FB
__ptext59                                      text59                             02770
__ptext6                                       text6                              01CA2
__ptext60                                      text60                             02764
__ptext61                                      text61                             018A4
__ptext62                                      text62                             01890
__ptext63                                      text63                             0272A
__ptext64                                      text64                             01960
__ptext65                                      text65                             0271F
__ptext66                                      text66                             01A20
__ptext67                                      text67                             02714
__ptext68                                      text68                             02758
__ptext69                                      text69                             0274C
__ptext7                                       text7                              01C19
__ptext70                                      text70                             027BD
__ptext71                                      text71                             01CD4
__ptext72                                      text72                             02709
__ptext73                                      text73                             01B4A
__ptext74                                      text74                             026FE
__ptext75                                      text75                             026F3
__ptext76                                      text76                             026E8
__ptext77                                      text77                             026DD
__ptext78                                      text78                             01A78
__ptext8                                       text8                              011A4
__ptext80                                      text80                             0187C
__ptext81                                      text81                             0266F
__ptext82                                      text82                             0138F
__ptext83                                      text83                             02691
__ptext84                                      text84                             018B9
__ptext85                                      text85                             02689
__ptext86                                      text86                             0181A
__ptext87                                      text87                             019E8
__ptext88                                      text88                             0266C
__ptext89                                      text89                             01451
__ptext9                                       text9                              00A6B
__ptext90                                      text90                             01856
__ptext91                                      text91                             01C71
__ptext92                                      text92                             00709
__ptext93                                      text93                             00CFE
__ptext94                                      text94                             01FA1
__ptext95                                      text95                             01946
__ptext96                                      text96                             0192C
__ptext97                                      text97                             01528
__ptext98                                      text98                             016FF
__ptext99                                      text99                             02740
__size_of_ADC_GetConversion                    (abs)                              00000
__size_of_ADC_Initialize                       (abs)                              00000
__size_of_DATAEE_ReadByte                      (abs)                              00000
__size_of_DATAEE_WriteByte                     (abs)                              00000
__size_of_EUSART_Initialize                    (abs)                              00000
__size_of_EUSART_SetErrorHandler               (abs)                              00000
__size_of_EUSART_SetFramingErrorHandler        (abs)                              00000
__size_of_EUSART_SetOverrunErrorHandler        (abs)                              00000
__size_of_EUSART_Write                         (abs)                              00000
__size_of_FLASH_ReadWord                       (abs)                              00000
__size_of_INTERRUPT_InterruptManager           (abs)                              00000
__size_of_OSCILLATOR_Initialize                (abs)                              00000
__size_of_PIN_MANAGER_Initialize               (abs)                              00000
__size_of_PMD_Initialize                       (abs)                              00000
__size_of_PWM5_Initialize                      (abs)                              00000
__size_of_PWM5_LoadDutyValue                   (abs)                              00000
__size_of_PWM6_Initialize                      (abs)                              00000
__size_of_PWM6_LoadDutyValue                   (abs)                              00000
__size_of_SYSTEM_Initialize                    (abs)                              00000
__size_of_TMR0_DefaultInterruptHandler         (abs)                              00000
__size_of_TMR0_ISR                             (abs)                              00000
__size_of_TMR0_Initialize                      (abs)                              00000
__size_of_TMR0_Reload                          (abs)                              00000
__size_of_TMR0_SetInterruptHandler             (abs)                              00000
__size_of_TMR1_DefaultInterruptHandler         (abs)                              00000
__size_of_TMR1_ISR                             (abs)                              00000
__size_of_TMR1_Initialize                      (abs)                              00000
__size_of_TMR1_SetInterruptHandler             (abs)                              00000
__size_of_TMR1_WriteTimer                      (abs)                              00000
__size_of_TMR2_DefaultInterruptHandler         (abs)                              00000
__size_of_TMR2_ISR                             (abs)                              00000
__size_of_TMR2_Initialize                      (abs)                              00000
__size_of_TMR2_SetInterruptHandler             (abs)                              00000
__size_of_TMR3_Initialize                      (abs)                              00000
__size_of_TMR4_Initialize                      (abs)                              00000
__size_of_TMR6_Initialize                      (abs)                              00000
__size_of_TMR6_LoadPeriodRegister              (abs)                              00000
__size_of_WDT_Initialize                       (abs)                              00000
__size_of__Umul8_16                            (abs)                              00000
__size_of___aodiv                              (abs)                              00000
__size_of___aomod                              (abs)                              00000
__size_of___fleq                               (abs)                              00000
__size_of___flmul                              (abs)                              00000
__size_of___fltol                              (abs)                              00000
__size_of___xxtofl                             (abs)                              00000
__size_of_abs                                  (abs)                              00000
__size_of_button_check                         (abs)                              00000
__size_of_button_init                          (abs)                              00000
__size_of_button_is_pressed                    (abs)                              00000
__size_of_dtoa                                 (abs)                              00000
__size_of_eeprom_read_error_handler            (abs)                              00000
__size_of_fputc                                (abs)                              00000
__size_of_fputs                                (abs)                              00000
__size_of_frequency_calculation                (abs)                              00000
__size_of_fuel_calibration                     (abs)                              00000
__size_of_fuel_get                             (abs)                              00000
__size_of_fuel_get_corr                        (abs)                              00000
__size_of_fuel_init                            (abs)                              00000
__size_of_fuel_low_check                       (abs)                              00000
__size_of_fuel_percent_calculate               (abs)                              00000
__size_of_fuel_pwm_calculate                   (abs)                              00000
__size_of_fuel_set_corr                        (abs)                              00000
__size_of_fuel_set_low                         (abs)                              00000
__size_of_fuel_uint_to_float                   (abs)                              00000
__size_of_is_fuel_low                          (abs)                              00000
__size_of_is_moving                            (abs)                              00000
__size_of_led_indicate                         (abs)                              00000
__size_of_led_init                             (abs)                              00000
__size_of_led_off                              (abs)                              00000
__size_of_led_on                               (abs)                              00000
__size_of_led_set_mode                         (abs)                              00000
__size_of_led_toggle                           (abs)                              00000
__size_of_main                                 (abs)                              00000
__size_of_menu_change                          (abs)                              00000
__size_of_pad                                  (abs)                              00000
__size_of_printf                               (abs)                              00000
__size_of_putch                                (abs)                              00000
__size_of_puts                                 (abs)                              00000
__size_of_read_correction                      (abs)                              00000
__size_of_spd_a_calibration                    (abs)                              00000
__size_of_spd_adc_to_u8                        (abs)                              00000
__size_of_spd_get_a_corr                       (abs)                              00000
__size_of_spd_get_k_corr                       (abs)                              00000
__size_of_spd_init                             (abs)                              00000
__size_of_spd_k_calibration                    (abs)                              00000
__size_of_spd_set_a_corr                       (abs)                              00000
__size_of_spd_set_k_corr                       (abs)                              00000
__size_of_spd_test_pwm                         (abs)                              00000
__size_of_spd_uint_to_float                    (abs)                              00000
__size_of_strlen                               (abs)                              00000
__size_of_vfpfcnvrt                            (abs)                              00000
__size_of_vfprintf                             (abs)                              00000
__size_of_write_correction                     (abs)                              00000
__size_ofi1_EUSART_Write                       (abs)                              00000
__size_ofi1_PWM6_LoadDutyValue                 (abs)                              00000
__size_ofi1_TMR6_LoadPeriodRegister            (abs)                              00000
__size_ofi1__Umul8_16                          (abs)                              00000
__size_ofi1___aodiv                            (abs)                              00000
__size_ofi1___aomod                            (abs)                              00000
__size_ofi1___flmul                            (abs)                              00000
__size_ofi1___fltol                            (abs)                              00000
__size_ofi1___xxtofl                           (abs)                              00000
__size_ofi1_abs                                (abs)                              00000
__size_ofi1_dtoa                               (abs)                              00000
__size_ofi1_fputc                              (abs)                              00000
__size_ofi1_fputs                              (abs)                              00000
__size_ofi1_is_moving                          (abs)                              00000
__size_ofi1_led_set_mode                       (abs)                              00000
__size_ofi1_pad                                (abs)                              00000
__size_ofi1_printf                             (abs)                              00000
__size_ofi1_putch                              (abs)                              00000
__size_ofi1_puts                               (abs)                              00000
__size_ofi1_strlen                             (abs)                              00000
__size_ofi1_vfpfcnvrt                          (abs)                              00000
__size_ofi1_vfprintf                           (abs)                              00000
_abs                                           text53                             01A04
_button                                        bssBANK2                           00157
_button_check                                  text41                             01047
_button_init                                   text40                             0277C
_button_is_pressed                             text56                             026B3
_dbuf                                          bssBANK3                           001AA
_dtoa                                          text46                             00B8D
_dtoa$2180                                     cstackBANK1                        000D2
_eeprom_read_error_handler                     text12                             027AE
_eusartRxLastError                             bssBANK2                           00160
_flags                                         bssBANK1                           000EC
_fputc                                         text50                             01DB9
_fputs                                         text49                             01BC3
_frequency_calculation                         text89                             01451
_fuel                                          bssBANK3                           001CA
_fuel_calibration                              text27                             01EED
_fuel_get                                      text26                             01E9A
_fuel_get_corr                                 text25                             027DE
_fuel_init                                     text24                             01ADE
_fuel_low_check                                text35                             01E02
_fuel_percent_calculate                        text30                             01D3D
_fuel_pwm_calculate                            text29                             01D74
_fuel_set_corr                                 text23                             01832
_fuel_set_low                                  text37                             018E5
_fuel_uint_to_float                            text28                             01BEE
_is_fuel_low                                   text36                             02672
_is_moving                                     text22                             02735
_led                                           bssBANK3                           001A0
_led_indicate                                  text82                             0138F
_led_init                                      text21                             027EF
_led_off                                       text86                             0181A
_led_on                                        text85                             02689
_led_set_mode                                  text20                             026BD
_led_toggle                                    text84                             018B9
_main                                          maintext                           0052A
_menu                                          bssBANK2                           0015F
_menu_change                                   text19                             02788
_nout                                          bssBANK3                           001A4
_pad                                           text47                             01F43
_prec                                          bssBANK2                           0015A
_printf                                        text43                             018CF
_putch                                         text51                             026A1
_puts                                          text42                             01A99
_puts$2235                                     cstackBANK1                        000C0
_read_correction                               text11                             00E70
_spd                                           bssBANK2                           00161
_spd_a_calibration                             text17                             01B71
_spd_adc_to_u8                                 text18                             02794
_spd_get_a_corr                                text16                             02676
_spd_get_k_corr                                text15                             01869
_spd_init                                      text8                              011A4
_spd_k_calibration                             text6                              01CA2
_spd_set_a_corr                                text5                              026AA
_spd_set_k_corr                                text4                              01844
_spd_test_pwm                                  text1                              00806
_spd_uint_to_float                             text7                              01C19
_strlen                                        text48                             0197B
_timer0ReloadVal16bit                          nvBANK2                            0016D
_timer1ReloadVal                               nvBANK3                            001E0
_timer3ReloadVal                               nvBANK3                            001DA
_vfpfcnvrt                                     text45                             00962
_vfprintf                                      text44                             01D07
_width                                         bssBANK3                           001A6
_write_correction                              text9                              00A6B
abs@a                                          cstackBANK1                        000BB
btemp                                          (abs)                              0007E
clear_ram0                                     clrtext                            00800
dtoa@d                                         cstackBANK1                        000C6
dtoa@fp                                        cstackBANK1                        000C5
dtoa@i                                         cstackBANK1                        000E2
dtoa@n                                         cstackBANK1                        000DA
dtoa@p                                         cstackBANK1                        000D4
dtoa@s                                         cstackBANK1                        000D8
dtoa@w                                         cstackBANK1                        000D6
end_of_initialization                          cinit                              00078
fputc@c                                        cstackBANK1                        000AA
fputc@fp                                       cstackBANK1                        000AC
fputs@c                                        cstackBANK1                        000B8
fputs@fp                                       cstackBANK1                        000B4
fputs@i                                        cstackBANK1                        000B9
fputs@s                                        cstackBANK1                        000B2
fuel_calibration@tmp                           cstackBANK1                        000DD
fuel_get@tmp                                   cstackBANK1                        000DD
fuel_low_check@low_count                       bssBANK2                           0015C
fuel_set_corr@value                            cstackBANK1                        000A8
fuel_set_low@var                               cstackBANK1                        000A9
fuel_uint_to_float@value                       cstackBANK1                        000D0
i1EUSART_Write@txData                          cstackCOMMON                       00070
i1PWM6_LoadDutyValue@dutyValue                 cstackCOMMON                       00070
i1TMR6_LoadPeriodRegister@periodVal            cstackCOMMON                       00070
i1_EUSART_Write                                text114                            027A0
i1_PWM6_LoadDutyValue                          text105                            018FB
i1_TMR6_LoadPeriodRegister                     text104                            0267A
i1__Umul8_16                                   text103                            01ABB
i1__Umul8_16@multiplicand                      cstackCOMMON                       00070
i1__Umul8_16@multiplier                        cstackCOMMON                       00078
i1__Umul8_16@product                           cstackCOMMON                       00074
i1__Umul8_16@word_mpld                         cstackCOMMON                       00076
i1___aodiv                                     text98                             016FF
i1___aodiv@counter                             cstackCOMMON                       00071
i1___aodiv@dividend                            cstackBANK0                        00028
i1___aodiv@divisor                             cstackBANK0                        00020
i1___aodiv@quotient                            cstackCOMMON                       00073
i1___aodiv@sign                                cstackCOMMON                       00072
i1___aomod                                     text97                             01528
i1___aomod@counter                             cstackCOMMON                       00071
i1___aomod@dividend                            cstackBANK0                        00028
i1___aomod@divisor                             cstackBANK0                        00020
i1___aomod@sign                                cstackCOMMON                       00072
i1___flmul                                     text102                            002D3
i1___flmul@a                                   cstackBANK0                        00024
i1___flmul@aexp                                cstackBANK0                        00032
i1___flmul@b                                   cstackBANK0                        00020
i1___flmul@bexp                                cstackBANK0                        00033
i1___flmul@grs                                 cstackBANK0                        0002E
i1___flmul@prod                                cstackBANK0                        00034
i1___flmul@sign                                cstackBANK0                        0002D
i1___flmul@temp                                cstackBANK0                        00038
i1___fltol                                     text101                            010BA
i1___fltol@exp1                                cstackBANK0                        00044
i1___fltol@f1                                  cstackBANK0                        0003A
i1___fltol@sign1                               cstackBANK0                        00043
i1___xxtofl                                    text100                            01236
i1___xxtofl@arg                                cstackCOMMON                       0007A
i1___xxtofl@exp                                cstackCOMMON                       00079
i1___xxtofl@sign                               cstackCOMMON                       00078
i1___xxtofl@val                                cstackCOMMON                       00070
i1_abs                                         text96                             0192C
i1_dtoa                                        text93                             00CFE
i1_dtoa$2180                                   cstackBANK0                        0003C
i1_fputc                                       text112                            01001
i1_fputs                                       text111                            01B98
i1_is_moving                                   text99                             02740
i1_led_set_mode                                text83                             02691
i1_pad                                         text94                             01FA1
i1_printf                                      text90                             01856
i1_putch                                       text113                            02681
i1_puts                                        text110                            01A5A
i1_puts$2235                                   cstackBANK0                        0002A
i1_strlen                                      text95                             01946
i1_vfpfcnvrt                                   text92                             00709
i1_vfprintf                                    text91                             01C71
i1abs@a                                        cstackCOMMON                       00073
i1dtoa@d                                       cstackBANK0                        00030
i1dtoa@fp                                      cstackBANK0                        0003B
i1dtoa@i                                       cstackBANK0                        0004C
i1dtoa@n                                       cstackBANK0                        00044
i1dtoa@p                                       cstackBANK0                        0003E
i1dtoa@s                                       cstackBANK0                        00042
i1dtoa@w                                       cstackBANK0                        00040
i1fputc@c                                      cstackCOMMON                       00072
i1fputc@fp                                     cstackCOMMON                       00074
i1fputs@c                                      cstackBANK0                        00023
i1fputs@fp                                     cstackCOMMON                       0007C
i1fputs@i                                      cstackBANK0                        00024
i1fputs@s                                      cstackCOMMON                       0007A
i1led_set_mode@newmode                         cstackCOMMON                       00071
i1pad@buf                                      cstackBANK0                        00026
i1pad@fp                                       cstackBANK0                        0002D
i1pad@i                                        cstackBANK0                        00029
i1pad@p                                        cstackBANK0                        00027
i1pad@w                                        cstackBANK0                        0002B
i1printf@ap                                    cstackBANK1                        000A2
i1printf@fmt                                   cstackBANK0                        00068
i1putch@txData                                 cstackCOMMON                       00071
i1puts@s                                       cstackBANK0                        00026
i1strlen@a                                     cstackCOMMON                       00073
i1strlen@s                                     cstackCOMMON                       00074
i1vfpfcnvrt@ap                                 cstackBANK0                        00050
i1vfpfcnvrt@fmt                                cstackBANK0                        0004E
i1vfpfcnvrt@fp                                 cstackBANK0                        0005F
i1vfpfcnvrt@ll                                 cstackBANK0                        00057
i1vfprintf@ap                                  cstackBANK0                        00062
i1vfprintf@cfmt                                cstackBANK0                        00066
i1vfprintf@fmt                                 cstackBANK0                        00060
i1vfprintf@fp                                  cstackBANK0                        00065
int$flags                                      (abs)                              0007E
intlevel0                                      functab                            00000
intlevel1                                      functab                            00000
intlevel2                                      functab                            00000
intlevel3                                      functab                            00000
intlevel4                                      functab                            00000
intlevel5                                      functab                            00000
led_indicate@count                             bssBANK1                           000EF
led_indicate@delay                             bssBANK2                           0015E
led_set_mode@newmode                           cstackBANK1                        000A9
main@button                                    cstackBANK4                        00233
main@i                                         cstackBANK4                        0022B
main@stored_fuel                               cstackBANK4                        00226
main@stored_spd_a                              cstackBANK4                        0022A
main@stored_spd_k                              cstackBANK4                        00222
main@tmp                                       cstackBANK4                        0022F
pad@buf                                        cstackBANK1                        000BC
pad@fp                                         cstackBANK1                        000BB
pad@i                                          cstackBANK1                        000C1
pad@p                                          cstackBANK1                        000BD
pad@w                                          cstackBANK1                        000C3
printf@ap                                      cstackBANK2                        0014E
printf@fmt                                     cstackBANK2                        00144
putch@txData                                   cstackBANK1                        000A9
puts@s                                         cstackBANK1                        000BB
read_correction@address                        cstackBANK1                        000D4
read_correction@buffer                         cstackBANK1                        000D6
read_correction@i                              cstackBANK1                        000CE
read_correction@i_1564                         cstackBANK1                        000CF
read_correction@i_1567                         cstackBANK1                        000D0
read_correction@i_1568                         cstackBANK1                        000D1
read_correction@i_1570                         cstackBANK1                        000D2
read_correction@i_1571                         cstackBANK1                        000D3
read_correction@return_ptr                     cstackBANK1                        000C9
read_correction@s_tmp                          cstackBANK1                        000C7
read_correction@tmp                            cstackBANK1                        000CA
read_correction@type                           cstackBANK1                        000C2
reset_vec                                      reset_vec                          00000
spd_a_calibration@stored_ch                    cstackBANK1                        000AF
spd_a_calibration@tmp                          cstackBANK1                        000AD
spd_adc_to_u8@value                            cstackBANK1                        000A8
spd_init@tmp                                   cstackBANK1                        000DC
spd_k_calibration@stored_ch                    cstackBANK1                        000D7
spd_k_calibration@tmp                          cstackBANK1                        000D5
spd_set_a_corr@value                           cstackBANK1                        000A9
spd_set_k_corr@value                           cstackBANK1                        000A8
spd_test_pwm@func_count                        bssBANK2                           0015D
spd_test_pwm@rising                            dataBANK2                          0016F
spd_test_pwm@spd_count                         bssBANK1                           000EE
spd_uint_to_float@value                        cstackBANK1                        000D0
start                                          init                               00044
start_initialization                           cinit                              00046
strlen@a                                       cstackBANK1                        000AB
strlen@s                                       cstackBANK1                        000AC
u7907jf                                        text46                             00CF6
u8037jf                                        text45                             009FA
u8077jf                                        text12                             027B7
u8627jf                                        text44                             01D20
u8697jf                                        text43                             018E1
u8717jf                                        text9                              00AC2
u8737jf                                        text9                              00B13
u8757jf                                        text9                              00B68
u8767jf                                        text9                              00B73
u8897jf                                        text11                             00EE5
u8907jf                                        text11                             00EF0
u8947jf                                        text11                             00F5E
u8987jf                                        text11                             00FD6
u8997jf                                        text11                             00FE1
u9117jf                                        text8                              011AA
u9137jf                                        text8                              011FB
u9147jf                                        text8                              01201
u9167jf                                        text8                              01229
u9187jf                                        text41                             0105D
u9207jf                                        text41                             0106C
u9257jf                                        text41                             010A4
u9267jf                                        text41                             010B1
u9457jf                                        maintext                           0054F
u9467jf                                        maintext                           00558
u9477jf                                        maintext                           0056E
u9507jf                                        maintext                           005A3
u9547jf                                        maintext                           0060F
u9577jf                                        maintext                           00675
u9607jf                                        maintext                           006BD
u9627jf                                        maintext                           006E1
vfpfcnvrt@ap                                   cstackBANK2                        0012B
vfpfcnvrt@fmt                                  cstackBANK2                        0012A
vfpfcnvrt@fp                                   cstackBANK2                        00129
vfpfcnvrt@ll                                   cstackBANK2                        00132
vfprintf@ap                                    cstackBANK2                        0013D
vfprintf@cfmt                                  cstackBANK2                        00142
vfprintf@fmt                                   cstackBANK2                        0013B
vfprintf@fp                                    cstackBANK2                        0013A
write_correction@address                       cstackBANK1                        000CB
write_correction@buffer                        cstackBANK1                        000CD
write_correction@i                             cstackBANK1                        000C8
write_correction@i_1585                        cstackBANK1                        000C9
write_correction@i_1587                        cstackBANK1                        000CA
write_correction@type                          cstackBANK1                        000C1
write_correction@value                         cstackBANK1                        000C2
wtemp0                                         (abs)                              0007E


FUNCTION INFORMATION:

 *************** function _main *****************
 Defined at:
		line 81 in file "main.c"
 Parameters:    Size  Location     Type
		None
 Auto vars:     Size  Location     Type
  stored_spd_a    1   10[BANK4 ] unsigned char 
  stored_fuel     4    6[BANK4 ] float 
  stored_spd_k    4    2[BANK4 ] float 
  i               4   11[BANK4 ] unsigned long 
  button          1   19[BANK4 ] enum E6836
  tmp             4   15[BANK4 ] float 
  s_tmp           2    0        unsigned short 
 Return value:  Size  Location     Type
                  1    wreg      void 
 Registers used:
		wreg, fsr0l, fsr0h, fsr1l, fsr1h, status,2, status,0, pclath, cstack
 Tracked objects:
		On entry : 
		On exit  : 
		Unchanged: 
 Data sizes:     COMMON   BANK0   BANK1   BANK2   BANK3   BANK4   BANK5   BANK6   BANK7   BANK8   BANK9  BANK10  BANK11  BANK12  BANK13  BANK14  BANK15  BANK16  BANK17  BANK18  BANK19  BANK20  BANK21  BANK22  BANK23  BANK24  BANK25
      Params:         0       0       0       0       0       0       0       0       0       0       0       0       0       0       0       0       0       0       0       0       0       0       0       0       0       0       0
      Locals:         0       0       0       0       0      20       0       0       0       0       0       0       0       0       0       0       0       0       0       0       0       0       0       0       0       0       0
      Temps:          0       0       0       4       0       0       0       0       0       0       0       0       0       0       0       0       0       0       0       0       0       0       0       0       0       0       0
      Totals:         0       0       0       4       0      20       0       0       0       0       0       0       0       0       0       0       0       0       0       0       0       0       0       0       0       0       0
Total ram usage:       24 bytes
 Hardware stack levels required when called:   16
 This function calls:
		_FLASH_ReadWord
		_SYSTEM_Initialize
		_TMR1_SetInterruptHandler
		_TMR2_SetInterruptHandler
		_button_check
		_button_init
		_fuel_calibration
		_fuel_get
		_fuel_get_corr
		_fuel_init
		_fuel_set_corr
		_is_moving
		_led_init
		_led_set_mode
		_menu_change
		_printf
		_puts
		_spd_a_calibration
		_spd_get_a_corr
		_spd_get_k_corr
		_spd_init
		_spd_k_calibration
		_spd_set_a_corr
		_spd_set_k_corr
		_spd_test_pwm
		_write_correction
 This function is called by:
		Startup code after reset
 This function uses a non-reentrant model


 *************** function _spd_test_pwm *****************
 Defined at:
		line 128 in file "spd.c"
 Parameters:    Size  Location     Type
		None
 Auto vars:     Size  Location     Type
		None
 Return value:  Size  Location     Type
                  1    wreg      void 
 Registers used:
		wreg, status,2, status,0, pclath, cstack
 Tracked objects:
		On entry : 
		On exit  : 
		Unchanged: 
 Data sizes:     COMMON   BANK0   BANK1   BANK2   BANK3   BANK4   BANK5   BANK6   BANK7   BANK8   BANK9  BANK10  BANK11  BANK12  BANK13  BANK14  BANK15  BANK16  BANK17  BANK18  BANK19  BANK20  BANK21  BANK22  BANK23  BANK24  BANK25
      Params:         0       0       0       0       0       0       0       0       0       0       0       0       0       0       0       0       0       0       0       0       0       0       0       0       0       0       0
      Locals:         0       0       0       0       0       0       0       0       0       0       0       0       0       0       0       0       0       0       0       0       0       0       0       0       0       0       0
      Temps:          0       0       4       0       0       0       0       0       0       0       0       0       0       0       0       0       0       0       0       0       0       0       0       0       0       0       0
      Totals:         0       0       4       0       0       0       0       0       0       0       0       0       0       0       0       0       0       0       0       0       0       0       0       0       0       0       0
Total ram usage:        4 bytes
 Hardware stack levels used:    1
 Hardware stack levels required when called:   13
 This function calls:
		_PWM6_LoadDutyValue
		_TMR6_LoadPeriodRegister
 This function is called by:
		_main
 This function uses a non-reentrant model


 *************** function _TMR6_LoadPeriodRegister *****************
 Defined at:
		line 106 in file "mcc_generated_files/tmr6.c"
 Parameters:    Size  Location     Type
  periodVal       1    wreg     unsigned char 
 Auto vars:     Size  Location     Type
  periodVal       1    8[BANK1 ] unsigned char 
 Return value:  Size  Location     Type
                  1    wreg      void 
 Registers used:
		wreg
 Tracked objects:
		On entry : 
		On exit  : 
		Unchanged: 
 Data sizes:     COMMON   BANK0   BANK1   BANK2   BANK3   BANK4   BANK5   BANK6   BANK7   BANK8   BANK9  BANK10  BANK11  BANK12  BANK13  BANK14  BANK15  BANK16  BANK17  BANK18  BANK19  BANK20  BANK21  BANK22  BANK23  BANK24  BANK25
      Params:         0       0       0       0       0       0       0       0       0       0       0       0       0       0       0       0       0       0       0       0       0       0       0       0       0       0       0
      Locals:         0       0       1       0       0       0       0       0       0       0       0       0       0       0       0       0       0       0       0       0       0       0       0       0       0       0       0
      Temps:          0       0       0       0       0       0       0       0       0       0       0       0       0       0       0       0       0       0       0       0       0       0       0       0       0       0       0
      Totals:         0       0       1       0       0       0       0       0       0       0       0       0       0       0       0       0       0       0       0       0       0       0       0       0       0       0       0
Total ram usage:        1 bytes
 Hardware stack levels used:    1
 Hardware stack levels required when called:   12
 This function calls:
		Nothing
 This function is called by:
		_spd_test_pwm
 This function uses a non-reentrant model


 *************** function _PWM6_LoadDutyValue *****************
 Defined at:
		line 74 in file "mcc_generated_files/pwm6.c"
 Parameters:    Size  Location     Type
  dutyValue       2    8[BANK1 ] unsigned short 
 Auto vars:     Size  Location     Type
		None
 Return value:  Size  Location     Type
                  1    wreg      void 
 Registers used:
		wreg, status,2, status,0
 Tracked objects:
		On entry : 
		On exit  : 
		Unchanged: 
 Data sizes:     COMMON   BANK0   BANK1   BANK2   BANK3   BANK4   BANK5   BANK6   BANK7   BANK8   BANK9  BANK10  BANK11  BANK12  BANK13  BANK14  BANK15  BANK16  BANK17  BANK18  BANK19  BANK20  BANK21  BANK22  BANK23  BANK24  BANK25
      Params:         0       0       2       0       0       0       0       0       0       0       0       0       0       0       0       0       0       0       0       0       0       0       0       0       0       0       0
      Locals:         0       0       0       0       0       0       0       0       0       0       0       0       0       0       0       0       0       0       0       0       0       0       0       0       0       0       0
      Temps:          0       0       2       0       0       0       0       0       0       0       0       0       0       0       0       0       0       0       0       0       0       0       0       0       0       0       0
      Totals:         0       0       4       0       0       0       0       0       0       0       0       0       0       0       0       0       0       0       0       0       0       0       0       0       0       0       0
Total ram usage:        4 bytes
 Hardware stack levels used:    1
 Hardware stack levels required when called:   12
 This function calls:
		Nothing
 This function is called by:
		_spd_test_pwm
 This function uses a non-reentrant model


 *************** function _spd_set_k_corr *****************
 Defined at:
		line 65 in file "spd.c"
 Parameters:    Size  Location     Type
  value           4    8[BANK1 ] float 
 Auto vars:     Size  Location     Type
		None
 Return value:  Size  Location     Type
                  1    wreg      void 
 Registers used:
		wreg
 Tracked objects:
		On entry : 
		On exit  : 
		Unchanged: 
 Data sizes:     COMMON   BANK0   BANK1   BANK2   BANK3   BANK4   BANK5   BANK6   BANK7   BANK8   BANK9  BANK10  BANK11  BANK12  BANK13  BANK14  BANK15  BANK16  BANK17  BANK18  BANK19  BANK20  BANK21  BANK22  BANK23  BANK24  BANK25
      Params:         0       0       4       0       0       0       0       0       0       0       0       0       0       0       0       0       0       0       0       0       0       0       0       0       0       0       0
      Locals:         0       0       0       0       0       0       0       0       0       0       0       0       0       0       0       0       0       0       0       0       0       0       0       0       0       0       0
      Temps:          0       0       0       0       0       0       0       0       0       0       0       0       0       0       0       0       0       0       0       0       0       0       0       0       0       0       0
      Totals:         0       0       4       0       0       0       0       0       0       0       0       0       0       0       0       0       0       0       0       0       0       0       0       0       0       0       0
Total ram usage:        4 bytes
 Hardware stack levels used:    1
 Hardware stack levels required when called:   12
 This function calls:
		Nothing
 This function is called by:
		_main
 This function uses a non-reentrant model


 *************** function _spd_set_a_corr *****************
 Defined at:
		line 75 in file "spd.c"
 Parameters:    Size  Location     Type
  value           1    wreg     unsigned char 
 Auto vars:     Size  Location     Type
  value           1    9[BANK1 ] unsigned char 
 Return value:  Size  Location     Type
                  1    wreg      void 
 Registers used:
		wreg
 Tracked objects:
		On entry : 
		On exit  : 
		Unchanged: 
 Data sizes:     COMMON   BANK0   BANK1   BANK2   BANK3   BANK4   BANK5   BANK6   BANK7   BANK8   BANK9  BANK10  BANK11  BANK12  BANK13  BANK14  BANK15  BANK16  BANK17  BANK18  BANK19  BANK20  BANK21  BANK22  BANK23  BANK24  BANK25
      Params:         0       0       0       0       0       0       0       0       0       0       0       0       0       0       0       0       0       0       0       0       0       0       0       0       0       0       0
      Locals:         0       0       1       0       0       0       0       0       0       0       0       0       0       0       0       0       0       0       0       0       0       0       0       0       0       0       0
      Temps:          0       0       1       0       0       0       0       0       0       0       0       0       0       0       0       0       0       0       0       0       0       0       0       0       0       0       0
      Totals:         0       0       2       0       0       0       0       0       0       0       0       0       0       0       0       0       0       0       0       0       0       0       0       0       0       0       0
Total ram usage:        2 bytes
 Hardware stack levels used:    1
 Hardware stack levels required when called:   12
 This function calls:
		Nothing
 This function is called by:
		_main
 This function uses a non-reentrant model


 *************** function _spd_k_calibration *****************
 Defined at:
		line 157 in file "spd.c"
 Parameters:    Size  Location     Type
		None
 Auto vars:     Size  Location     Type
  tmp             2   53[BANK1 ] unsigned short 
  stored_ch       1   55[BANK1 ] enum E6440
 Return value:  Size  Location     Type
                  1    wreg      void 
 Registers used:
		wreg, status,2, status,0, pclath, cstack
 Tracked objects:
		On entry : 
		On exit  : 
		Unchanged: 
 Data sizes:     COMMON   BANK0   BANK1   BANK2   BANK3   BANK4   BANK5   BANK6   BANK7   BANK8   BANK9  BANK10  BANK11  BANK12  BANK13  BANK14  BANK15  BANK16  BANK17  BANK18  BANK19  BANK20  BANK21  BANK22  BANK23  BANK24  BANK25
      Params:         0       0       0       0       0       0       0       0       0       0       0       0       0       0       0       0       0       0       0       0       0       0       0       0       0       0       0
      Locals:         0       0       3       0       0       0       0       0       0       0       0       0       0       0       0       0       0       0       0       0       0       0       0       0       0       0       0
      Temps:          0       0       1       0       0       0       0       0       0       0       0       0       0       0       0       0       0       0       0       0       0       0       0       0       0       0       0
      Totals:         0       0       4       0       0       0       0       0       0       0       0       0       0       0       0       0       0       0       0       0       0       0       0       0       0       0       0
Total ram usage:        4 bytes
 Hardware stack levels used:    1
 Hardware stack levels required when called:   15
 This function calls:
		_ADC_GetConversion
		_spd_uint_to_float
 This function is called by:
		_main
 This function uses a non-reentrant model


 *************** function _spd_uint_to_float *****************
 Defined at:
		line 80 in file "spd.c"
 Parameters:    Size  Location     Type
  value           2   48[BANK1 ] unsigned short 
 Auto vars:     Size  Location     Type
		None
 Return value:  Size  Location     Type
                  4   48[BANK1 ] float 
 Registers used:
		wreg, status,2, status,0, pclath, cstack
 Tracked objects:
		On entry : 
		On exit  : 
		Unchanged: 
 Data sizes:     COMMON   BANK0   BANK1   BANK2   BANK3   BANK4   BANK5   BANK6   BANK7   BANK8   BANK9  BANK10  BANK11  BANK12  BANK13  BANK14  BANK15  BANK16  BANK17  BANK18  BANK19  BANK20  BANK21  BANK22  BANK23  BANK24  BANK25
      Params:         0       0       4       0       0       0       0       0       0       0       0       0       0       0       0       0       0       0       0       0       0       0       0       0       0       0       0
      Locals:         0       0       0       0       0       0       0       0       0       0       0       0       0       0       0       0       0       0       0       0       0       0       0       0       0       0       0
      Temps:          0       0       0       0       0       0       0       0       0       0       0       0       0       0       0       0       0       0       0       0       0       0       0       0       0       0       0
      Totals:         0       0       4       0       0       0       0       0       0       0       0       0       0       0       0       0       0       0       0       0       0       0       0       0       0       0       0
Total ram usage:        4 bytes
 Hardware stack levels used:    1
 Hardware stack levels required when called:   14
 This function calls:
		___flmul
		___xxtofl
 This function is called by:
		_spd_k_calibration
 This function uses a non-reentrant model


 *************** function _spd_init *****************
 Defined at:
		line 30 in file "spd.c"
 Parameters:    Size  Location     Type
		None
 Auto vars:     Size  Location     Type
  tmp             1   60[BANK1 ] PTR void 
		 -> read_correction@buffer(4), NULL(0), 
 Return value:  Size  Location     Type
                  1   58[BANK1 ] void 
 Registers used:
		wreg, fsr0l, fsr0h, fsr1l, fsr1h, status,2, status,0, pclath, cstack
 Tracked objects:
		On entry : 
		On exit  : 
		Unchanged: 
 Data sizes:     COMMON   BANK0   BANK1   BANK2   BANK3   BANK4   BANK5   BANK6   BANK7   BANK8   BANK9  BANK10  BANK11  BANK12  BANK13  BANK14  BANK15  BANK16  BANK17  BANK18  BANK19  BANK20  BANK21  BANK22  BANK23  BANK24  BANK25
      Params:         0       0       1       0       0       0       0       0       0       0       0       0       0       0       0       0       0       0       0       0       0       0       0       0       0       0       0
      Locals:         0       0       1       0       0       0       0       0       0       0       0       0       0       0       0       0       0       0       0       0       0       0       0       0       0       0       0
      Temps:          0       0       1       0       0       0       0       0       0       0       0       0       0       0       0       0       0       0       0       0       0       0       0       0       0       0       0
      Totals:         0       0       3       0       0       0       0       0       0       0       0       0       0       0       0       0       0       0       0       0       0       0       0       0       0       0       0
Total ram usage:        3 bytes
 Hardware stack levels required when called:   16
 This function calls:
		___fleq
		_read_correction
		_write_correction
 This function is called by:
		_main
 This function uses a non-reentrant model


 *************** function _write_correction *****************
 Defined at:
		line 107 in file "eeprom.c"
 Parameters:    Size  Location     Type
  type            1   33[BANK1 ] enum E6817
  value           2   34[BANK1 ] PTR void 
		 -> read_correction@buffer(4), NULL(0), main@tmp(4), 
 Auto vars:     Size  Location     Type
  i               1   42[BANK1 ] unsigned char 
  i               1   41[BANK1 ] unsigned char 
  i               1   40[BANK1 ] unsigned char 
  buffer          4   45[BANK1 ] struct .
  address         2   43[BANK1 ] unsigned short 
 Return value:  Size  Location     Type
                  1   33[BANK1 ] void 
 Registers used:
		wreg, fsr0l, fsr0h, fsr1l, fsr1h, status,2, status,0, pclath, cstack
 Tracked objects:
		On entry : 
		On exit  : 
		Unchanged: 
 Data sizes:     COMMON   BANK0   BANK1   BANK2   BANK3   BANK4   BANK5   BANK6   BANK7   BANK8   BANK9  BANK10  BANK11  BANK12  BANK13  BANK14  BANK15  BANK16  BANK17  BANK18  BANK19  BANK20  BANK21  BANK22  BANK23  BANK24  BANK25
      Params:         0       0       4       0       0       0       0       0       0       0       0       0       0       0       0       0       0       0       0       0       0       0       0       0       0       0       0
      Locals:         0       0       9       0       0       0       0       0       0       0       0       0       0       0       0       0       0       0       0       0       0       0       0       0       0       0       0
      Temps:          0       0       3       0       0       0       0       0       0       0       0       0       0       0       0       0       0       0       0       0       0       0       0       0       0       0       0
      Totals:         0       0      16       0       0       0       0       0       0       0       0       0       0       0       0       0       0       0       0       0       0       0       0       0       0       0       0
Total ram usage:       16 bytes
 Hardware stack levels required when called:   16
 This function calls:
		_DATAEE_WriteByte
		_puts
 This function is called by:
		_main
		_spd_init
 This function uses a non-reentrant model


 *************** function _DATAEE_WriteByte *****************
 Defined at:
		line 180 in file "mcc_generated_files/memory.c"
 Parameters:    Size  Location     Type
  bAdd            2    8[BANK1 ] unsigned short 
  bData           1   10[BANK1 ] unsigned char 
 Auto vars:     Size  Location     Type
  GIEBitValue     1   11[BANK1 ] unsigned char 
 Return value:  Size  Location     Type
                  1    wreg      void 
 Registers used:
		wreg, status,2, status,0
 Tracked objects:
		On entry : 
		On exit  : 
		Unchanged: 
 Data sizes:     COMMON   BANK0   BANK1   BANK2   BANK3   BANK4   BANK5   BANK6   BANK7   BANK8   BANK9  BANK10  BANK11  BANK12  BANK13  BANK14  BANK15  BANK16  BANK17  BANK18  BANK19  BANK20  BANK21  BANK22  BANK23  BANK24  BANK25
      Params:         0       0       3       0       0       0       0       0       0       0       0       0       0       0       0       0       0       0       0       0       0       0       0       0       0       0       0
      Locals:         0       0       1       0       0       0       0       0       0       0       0       0       0       0       0       0       0       0       0       0       0       0       0       0       0       0       0
      Temps:          0       0       0       0       0       0       0       0       0       0       0       0       0       0       0       0       0       0       0       0       0       0       0       0       0       0       0
      Totals:         0       0       4       0       0       0       0       0       0       0       0       0       0       0       0       0       0       0       0       0       0       0       0       0       0       0       0
Total ram usage:        4 bytes
 Hardware stack levels used:    1
 Hardware stack levels required when called:   12
 This function calls:
		Nothing
 This function is called by:
		_write_correction
 This function uses a non-reentrant model


 *************** function _read_correction *****************
 Defined at:
		line 25 in file "eeprom.c"
 Parameters:    Size  Location     Type
  type            1   34[BANK1 ] enum E6817
 Auto vars:     Size  Location     Type
  i               1   51[BANK1 ] unsigned char 
  i               1   50[BANK1 ] unsigned char 
  i               1   49[BANK1 ] unsigned char 
  i               1   48[BANK1 ] unsigned char 
  i               1   47[BANK1 ] unsigned char 
  i               1   46[BANK1 ] unsigned char 
  buffer          4   54[BANK1 ] struct .
  tmp             4   42[BANK1 ] float 
  address         2   52[BANK1 ] unsigned short 
  s_tmp           2   39[BANK1 ] unsigned short 
  return_ptr      1   41[BANK1 ] PTR void 
		 -> read_correction@buffer(4), NULL(0), 
 Return value:  Size  Location     Type
                  1   34[BANK1 ] PTR void 
 Registers used:
		wreg, fsr0l, fsr0h, fsr1l, fsr1h, status,2, status,0, pclath, cstack
 Tracked objects:
		On entry : 
		On exit  : 
		Unchanged: 
 Data sizes:     COMMON   BANK0   BANK1   BANK2   BANK3   BANK4   BANK5   BANK6   BANK7   BANK8   BANK9  BANK10  BANK11  BANK12  BANK13  BANK14  BANK15  BANK16  BANK17  BANK18  BANK19  BANK20  BANK21  BANK22  BANK23  BANK24  BANK25
      Params:         0       0       2       0       0       0       0       0       0       0       0       0       0       0       0       0       0       0       0       0       0       0       0       0       0       0       0
      Locals:         0       0      19       0       0       0       0       0       0       0       0       0       0       0       0       0       0       0       0       0       0       0       0       0       0       0       0
      Temps:          0       0       3       0       0       0       0       0       0       0       0       0       0       0       0       0       0       0       0       0       0       0       0       0       0       0       0
      Totals:         0       0      24       0       0       0       0       0       0       0       0       0       0       0       0       0       0       0       0       0       0       0       0       0       0       0       0
Total ram usage:       24 bytes
 Hardware stack levels required when called:   16
 This function calls:
		_DATAEE_ReadByte
		___fleq
		_eeprom_read_error_handler
		_puts
 This function is called by:
		_spd_init
 This function uses a non-reentrant model


 *************** function _eeprom_read_error_handler *****************
 Defined at:
		line 19 in file "eeprom.c"
 Parameters:    Size  Location     Type
		None
 Auto vars:     Size  Location     Type
		None
 Return value:  Size  Location     Type
                  1   33[BANK1 ] void 
 Registers used:
		wreg, fsr0l, fsr0h, fsr1l, fsr1h, status,2, status,0, pclath, cstack
 Tracked objects:
		On entry : 
		On exit  : 
		Unchanged: 
 Data sizes:     COMMON   BANK0   BANK1   BANK2   BANK3   BANK4   BANK5   BANK6   BANK7   BANK8   BANK9  BANK10  BANK11  BANK12  BANK13  BANK14  BANK15  BANK16  BANK17  BANK18  BANK19  BANK20  BANK21  BANK22  BANK23  BANK24  BANK25
      Params:         0       0       1       0       0       0       0       0       0       0       0       0       0       0       0       0       0       0       0       0       0       0       0       0       0       0       0
      Locals:         0       0       0       0       0       0       0       0       0       0       0       0       0       0       0       0       0       0       0       0       0       0       0       0       0       0       0
      Temps:          0       0       0       0       0       0       0       0       0       0       0       0       0       0       0       0       0       0       0       0       0       0       0       0       0       0       0
      Totals:         0       0       1       0       0       0       0       0       0       0       0       0       0       0       0       0       0       0       0       0       0       0       0       0       0       0       0
Total ram usage:        1 bytes
 Hardware stack levels required when called:   16
 This function calls:
		_puts
 This function is called by:
		_read_correction
 This function uses a non-reentrant model


 *************** function ___fleq *****************
 Defined at:
		line 4 in file "/opt/microchip/xc8/v2.31/pic/sources/c99/common/fleq.c"
 Parameters:    Size  Location     Type
  ff1             4    8[BANK1 ] void 
  ff2             4   12[BANK1 ] void 
 Auto vars:     Size  Location     Type
		None
 Return value:  Size  Location     Type
		None               void
 Registers used:
		wreg, status,2, status,0
 Tracked objects:
		On entry : 
		On exit  : 
		Unchanged: 
 Data sizes:     COMMON   BANK0   BANK1   BANK2   BANK3   BANK4   BANK5   BANK6   BANK7   BANK8   BANK9  BANK10  BANK11  BANK12  BANK13  BANK14  BANK15  BANK16  BANK17  BANK18  BANK19  BANK20  BANK21  BANK22  BANK23  BANK24  BANK25
      Params:         0       0       8       0       0       0       0       0       0       0       0       0       0       0       0       0       0       0       0       0       0       0       0       0       0       0       0
      Locals:         0       0       0       0       0       0       0       0       0       0       0       0       0       0       0       0       0       0       0       0       0       0       0       0       0       0       0
      Temps:          0       0       4       0       0       0       0       0       0       0       0       0       0       0       0       0       0       0       0       0       0       0       0       0       0       0       0
      Totals:         0       0      12       0       0       0       0       0       0       0       0       0       0       0       0       0       0       0       0       0       0       0       0       0       0       0       0
Total ram usage:       12 bytes
 Hardware stack levels used:    1
 Hardware stack levels required when called:   12
 This function calls:
		Nothing
 This function is called by:
		_spd_init
		_read_correction
 This function uses a non-reentrant model


 *************** function _DATAEE_ReadByte *****************
 Defined at:
		line 202 in file "mcc_generated_files/memory.c"
 Parameters:    Size  Location     Type
  bAdd            2    8[BANK1 ] unsigned short 
 Auto vars:     Size  Location     Type
		None
 Return value:  Size  Location     Type
                  1    wreg      unsigned char 
 Registers used:
		wreg, status,2
 Tracked objects:
		On entry : 
		On exit  : 
		Unchanged: 
 Data sizes:     COMMON   BANK0   BANK1   BANK2   BANK3   BANK4   BANK5   BANK6   BANK7   BANK8   BANK9  BANK10  BANK11  BANK12  BANK13  BANK14  BANK15  BANK16  BANK17  BANK18  BANK19  BANK20  BANK21  BANK22  BANK23  BANK24  BANK25
      Params:         0       0       2       0       0       0       0       0       0       0       0       0       0       0       0       0       0       0       0       0       0       0       0       0       0       0       0
      Locals:         0       0       0       0       0       0       0       0       0       0       0       0       0       0       0       0       0       0       0       0       0       0       0       0       0       0       0
      Temps:          0       0       0       0       0       0       0       0       0       0       0       0       0       0       0       0       0       0       0       0       0       0       0       0       0       0       0
      Totals:         0       0       2       0       0       0       0       0       0       0       0       0       0       0       0       0       0       0       0       0       0       0       0       0       0       0       0
Total ram usage:        2 bytes
 Hardware stack levels used:    1
 Hardware stack levels required when called:   12
 This function calls:
		Nothing
 This function is called by:
		_read_correction
 This function uses a non-reentrant model


 *************** function _spd_get_k_corr *****************
 Defined at:
		line 60 in file "spd.c"
 Parameters:    Size  Location     Type
		None
 Auto vars:     Size  Location     Type
		None
 Return value:  Size  Location     Type
                  4    8[BANK1 ] float 
 Registers used:
		wreg
 Tracked objects:
		On entry : 
		On exit  : 
		Unchanged: 
 Data sizes:     COMMON   BANK0   BANK1   BANK2   BANK3   BANK4   BANK5   BANK6   BANK7   BANK8   BANK9  BANK10  BANK11  BANK12  BANK13  BANK14  BANK15  BANK16  BANK17  BANK18  BANK19  BANK20  BANK21  BANK22  BANK23  BANK24  BANK25
      Params:         0       0       4       0       0       0       0       0       0       0       0       0       0       0       0       0       0       0       0       0       0       0       0       0       0       0       0
      Locals:         0       0       0       0       0       0       0       0       0       0       0       0       0       0       0       0       0       0       0       0       0       0       0       0       0       0       0
      Temps:          0       0       0       0       0       0       0       0       0       0       0       0       0       0       0       0       0       0       0       0       0       0       0       0       0       0       0
      Totals:         0       0       4       0       0       0       0       0       0       0       0       0       0       0       0       0       0       0       0       0       0       0       0       0       0       0       0
Total ram usage:        4 bytes
 Hardware stack levels used:    1
 Hardware stack levels required when called:   12
 This function calls:
		Nothing
 This function is called by:
		_main
 This function uses a non-reentrant model


 *************** function _spd_get_a_corr *****************
 Defined at:
		line 70 in file "spd.c"
 Parameters:    Size  Location     Type
		None
 Auto vars:     Size  Location     Type
		None
 Return value:  Size  Location     Type
                  1    wreg      unsigned char 
 Registers used:
		wreg
 Tracked objects:
		On entry : 
		On exit  : 
		Unchanged: 
 Data sizes:     COMMON   BANK0   BANK1   BANK2   BANK3   BANK4   BANK5   BANK6   BANK7   BANK8   BANK9  BANK10  BANK11  BANK12  BANK13  BANK14  BANK15  BANK16  BANK17  BANK18  BANK19  BANK20  BANK21  BANK22  BANK23  BANK24  BANK25
      Params:         0       0       0       0       0       0       0       0       0       0       0       0       0       0       0       0       0       0       0       0       0       0       0       0       0       0       0
      Locals:         0       0       0       0       0       0       0       0       0       0       0       0       0       0       0       0       0       0       0       0       0       0       0       0       0       0       0
      Temps:          0       0       0       0       0       0       0       0       0       0       0       0       0       0       0       0       0       0       0       0       0       0       0       0       0       0       0
      Totals:         0       0       0       0       0       0       0       0       0       0       0       0       0       0       0       0       0       0       0       0       0       0       0       0       0       0       0
Total ram usage:        0 bytes
 Hardware stack levels used:    1
 Hardware stack levels required when called:   12
 This function calls:
		Nothing
 This function is called by:
		_main
 This function uses a non-reentrant model


 *************** function _spd_a_calibration *****************
 Defined at:
		line 171 in file "spd.c"
 Parameters:    Size  Location     Type
		None
 Auto vars:     Size  Location     Type
  tmp             2   13[BANK1 ] unsigned short 
  stored_ch       1   15[BANK1 ] enum E6440
 Return value:  Size  Location     Type
                  1    wreg      void 
 Registers used:
		wreg, status,2, status,0, pclath, cstack
 Tracked objects:
		On entry : 
		On exit  : 
		Unchanged: 
 Data sizes:     COMMON   BANK0   BANK1   BANK2   BANK3   BANK4   BANK5   BANK6   BANK7   BANK8   BANK9  BANK10  BANK11  BANK12  BANK13  BANK14  BANK15  BANK16  BANK17  BANK18  BANK19  BANK20  BANK21  BANK22  BANK23  BANK24  BANK25
      Params:         0       0       0       0       0       0       0       0       0       0       0       0       0       0       0       0       0       0       0       0       0       0       0       0       0       0       0
      Locals:         0       0       3       0       0       0       0       0       0       0       0       0       0       0       0       0       0       0       0       0       0       0       0       0       0       0       0
      Temps:          0       0       1       0       0       0       0       0       0       0       0       0       0       0       0       0       0       0       0       0       0       0       0       0       0       0       0
      Totals:         0       0       4       0       0       0       0       0       0       0       0       0       0       0       0       0       0       0       0       0       0       0       0       0       0       0       0
Total ram usage:        4 bytes
 Hardware stack levels used:    1
 Hardware stack levels required when called:   13
 This function calls:
		_ADC_GetConversion
		_spd_adc_to_u8
 This function is called by:
		_main
 This function uses a non-reentrant model


 *************** function _spd_adc_to_u8 *****************
 Defined at:
		line 85 in file "spd.c"
 Parameters:    Size  Location     Type
  value           2    8[BANK1 ] unsigned short 
 Auto vars:     Size  Location     Type
		None
 Return value:  Size  Location     Type
                  1    wreg      unsigned char 
 Registers used:
		wreg, status,2, status,0
 Tracked objects:
		On entry : 
		On exit  : 
		Unchanged: 
 Data sizes:     COMMON   BANK0   BANK1   BANK2   BANK3   BANK4   BANK5   BANK6   BANK7   BANK8   BANK9  BANK10  BANK11  BANK12  BANK13  BANK14  BANK15  BANK16  BANK17  BANK18  BANK19  BANK20  BANK21  BANK22  BANK23  BANK24  BANK25
      Params:         0       0       2       0       0       0       0       0       0       0       0       0       0       0       0       0       0       0       0       0       0       0       0       0       0       0       0
      Locals:         0       0       0       0       0       0       0       0       0       0       0       0       0       0       0       0       0       0       0       0       0       0       0       0       0       0       0
      Temps:          0       0       1       0       0       0       0       0       0       0       0       0       0       0       0       0       0       0       0       0       0       0       0       0       0       0       0
      Totals:         0       0       3       0       0       0       0       0       0       0       0       0       0       0       0       0       0       0       0       0       0       0       0       0       0       0       0
Total ram usage:        3 bytes
 Hardware stack levels used:    1
 Hardware stack levels required when called:   12
 This function calls:
		Nothing
 This function is called by:
		_spd_a_calibration
 This function uses a non-reentrant model


 *************** function _menu_change *****************
 Defined at:
		line 206 in file "main.c"
 Parameters:    Size  Location     Type
		None
 Auto vars:     Size  Location     Type
		None
 Return value:  Size  Location     Type
                  1    wreg      void 
 Registers used:
		wreg, status,2, status,0
 Tracked objects:
		On entry : 
		On exit  : 
		Unchanged: 
 Data sizes:     COMMON   BANK0   BANK1   BANK2   BANK3   BANK4   BANK5   BANK6   BANK7   BANK8   BANK9  BANK10  BANK11  BANK12  BANK13  BANK14  BANK15  BANK16  BANK17  BANK18  BANK19  BANK20  BANK21  BANK22  BANK23  BANK24  BANK25
      Params:         0       0       0       0       0       0       0       0       0       0       0       0       0       0       0       0       0       0       0       0       0       0       0       0       0       0       0
      Locals:         0       0       0       0       0       0       0       0       0       0       0       0       0       0       0       0       0       0       0       0       0       0       0       0       0       0       0
      Temps:          0       0       1       0       0       0       0       0       0       0       0       0       0       0       0       0       0       0       0       0       0       0       0       0       0       0       0
      Totals:         0       0       1       0       0       0       0       0       0       0       0       0       0       0       0       0       0       0       0       0       0       0       0       0       0       0       0
Total ram usage:        1 bytes
 Hardware stack levels used:    1
 Hardware stack levels required when called:   12
 This function calls:
		Nothing
 This function is called by:
		_main
 This function uses a non-reentrant model


 *************** function _led_set_mode *****************
 Defined at:
		line 34 in file "led.c"
 Parameters:    Size  Location     Type
  newmode         1    wreg     enum E6821
 Auto vars:     Size  Location     Type
  newmode         1    9[BANK1 ] enum E6821
 Return value:  Size  Location     Type
                  1    wreg      void 
 Registers used:
		wreg
 Tracked objects:
		On entry : 
		On exit  : 
		Unchanged: 
 Data sizes:     COMMON   BANK0   BANK1   BANK2   BANK3   BANK4   BANK5   BANK6   BANK7   BANK8   BANK9  BANK10  BANK11  BANK12  BANK13  BANK14  BANK15  BANK16  BANK17  BANK18  BANK19  BANK20  BANK21  BANK22  BANK23  BANK24  BANK25
      Params:         0       0       0       0       0       0       0       0       0       0       0       0       0       0       0       0       0       0       0       0       0       0       0       0       0       0       0
      Locals:         0       0       1       0       0       0       0       0       0       0       0       0       0       0       0       0       0       0       0       0       0       0       0       0       0       0       0
      Temps:          0       0       1       0       0       0       0       0       0       0       0       0       0       0       0       0       0       0       0       0       0       0       0       0       0       0       0
      Totals:         0       0       2       0       0       0       0       0       0       0       0       0       0       0       0       0       0       0       0       0       0       0       0       0       0       0       0
Total ram usage:        2 bytes
 Hardware stack levels used:    1
 Hardware stack levels required when called:   12
 This function calls:
		Nothing
 This function is called by:
		_main
 This function uses a non-reentrant model


 *************** function _led_init *****************
 Defined at:
		line 26 in file "led.c"
 Parameters:    Size  Location     Type
		None
 Auto vars:     Size  Location     Type
		None
 Return value:  Size  Location     Type
                  1    wreg      void 
 Registers used:
		wreg, status,2
 Tracked objects:
		On entry : 
		On exit  : 
		Unchanged: 
 Data sizes:     COMMON   BANK0   BANK1   BANK2   BANK3   BANK4   BANK5   BANK6   BANK7   BANK8   BANK9  BANK10  BANK11  BANK12  BANK13  BANK14  BANK15  BANK16  BANK17  BANK18  BANK19  BANK20  BANK21  BANK22  BANK23  BANK24  BANK25
      Params:         0       0       0       0       0       0       0       0       0       0       0       0       0       0       0       0       0       0       0       0       0       0       0       0       0       0       0
      Locals:         0       0       0       0       0       0       0       0       0       0       0       0       0       0       0       0       0       0       0       0       0       0       0       0       0       0       0
      Temps:          0       0       1       0       0       0       0       0       0       0       0       0       0       0       0       0       0       0       0       0       0       0       0       0       0       0       0
      Totals:         0       0       1       0       0       0       0       0       0       0       0       0       0       0       0       0       0       0       0       0       0       0       0       0       0       0       0
Total ram usage:        1 bytes
 Hardware stack levels used:    1
 Hardware stack levels required when called:   12
 This function calls:
		Nothing
 This function is called by:
		_main
 This function uses a non-reentrant model


 *************** function _is_moving *****************
 Defined at:
		line 26 in file "spd.c"
 Parameters:    Size  Location     Type
		None
 Auto vars:     Size  Location     Type
		None
 Return value:  Size  Location     Type
                  1    wreg      _Bool 
 Registers used:
		wreg, status,2, status,0
 Tracked objects:
		On entry : 
		On exit  : 
		Unchanged: 
 Data sizes:     COMMON   BANK0   BANK1   BANK2   BANK3   BANK4   BANK5   BANK6   BANK7   BANK8   BANK9  BANK10  BANK11  BANK12  BANK13  BANK14  BANK15  BANK16  BANK17  BANK18  BANK19  BANK20  BANK21  BANK22  BANK23  BANK24  BANK25
      Params:         0       0       0       0       0       0       0       0       0       0       0       0       0       0       0       0       0       0       0       0       0       0       0       0       0       0       0
      Locals:         0       0       0       0       0       0       0       0       0       0       0       0       0       0       0       0       0       0       0       0       0       0       0       0       0       0       0
      Temps:          0       0       0       0       0       0       0       0       0       0       0       0       0       0       0       0       0       0       0       0       0       0       0       0       0       0       0
      Totals:         0       0       0       0       0       0       0       0       0       0       0       0       0       0       0       0       0       0       0       0       0       0       0       0       0       0       0
Total ram usage:        0 bytes
 Hardware stack levels used:    1
 Hardware stack levels required when called:   12
 This function calls:
		Nothing
 This function is called by:
		_main
 This function uses a non-reentrant model


 *************** function _fuel_set_corr *****************
 Defined at:
		line 147 in file "fuel.c"
 Parameters:    Size  Location     Type
  value           4    8[BANK1 ] float 
 Auto vars:     Size  Location     Type
		None
 Return value:  Size  Location     Type
                  1    wreg      void 
 Registers used:
		wreg
 Tracked objects:
		On entry : 
		On exit  : 
		Unchanged: 
 Data sizes:     COMMON   BANK0   BANK1   BANK2   BANK3   BANK4   BANK5   BANK6   BANK7   BANK8   BANK9  BANK10  BANK11  BANK12  BANK13  BANK14  BANK15  BANK16  BANK17  BANK18  BANK19  BANK20  BANK21  BANK22  BANK23  BANK24  BANK25
      Params:         0       0       4       0       0       0       0       0       0       0       0       0       0       0       0       0       0       0       0       0       0       0       0       0       0       0       0
      Locals:         0       0       0       0       0       0       0       0       0       0       0       0       0       0       0       0       0       0       0       0       0       0       0       0       0       0       0
      Temps:          0       0       0       0       0       0       0       0       0       0       0       0       0       0       0       0       0       0       0       0       0       0       0       0       0       0       0
      Totals:         0       0       4       0       0       0       0       0       0       0       0       0       0       0       0       0       0       0       0       0       0       0       0       0       0       0       0
Total ram usage:        4 bytes
 Hardware stack levels used:    1
 Hardware stack levels required when called:   12
 This function calls:
		Nothing
 This function is called by:
		_main
 This function uses a non-reentrant model


 *************** function _fuel_init *****************
 Defined at:
		line 78 in file "fuel.c"
 Parameters:    Size  Location     Type
		None
 Auto vars:     Size  Location     Type
		None
 Return value:  Size  Location     Type
                  1    wreg      void 
 Registers used:
		wreg, fsr1l, fsr1h, status,2, status,0, pclath, cstack
 Tracked objects:
		On entry : 
		On exit  : 
		Unchanged: 
 Data sizes:     COMMON   BANK0   BANK1   BANK2   BANK3   BANK4   BANK5   BANK6   BANK7   BANK8   BANK9  BANK10  BANK11  BANK12  BANK13  BANK14  BANK15  BANK16  BANK17  BANK18  BANK19  BANK20  BANK21  BANK22  BANK23  BANK24  BANK25
      Params:         0       0       0       0       0       0       0       0       0       0       0       0       0       0       0       0       0       0       0       0       0       0       0       0       0       0       0
      Locals:         0       0       0       0       0       0       0       0       0       0       0       0       0       0       0       0       0       0       0       0       0       0       0       0       0       0       0
      Temps:          0       0       1       0       0       0       0       0       0       0       0       0       0       0       0       0       0       0       0       0       0       0       0       0       0       0       0
      Totals:         0       0       1       0       0       0       0       0       0       0       0       0       0       0       0       0       0       0       0       0       0       0       0       0       0       0       0
Total ram usage:        1 bytes
 Hardware stack levels used:    1
 Hardware stack levels required when called:   15
 This function calls:
		_ADC_GetConversion
		_fuel_percent_calculate
		_fuel_pwm_calculate
 This function is called by:
		_main
 This function uses a non-reentrant model


 *************** function _fuel_get_corr *****************
 Defined at:
		line 142 in file "fuel.c"
 Parameters:    Size  Location     Type
		None
 Auto vars:     Size  Location     Type
		None
 Return value:  Size  Location     Type
                  4    8[BANK1 ] float 
 Registers used:
		wreg, fsr1l, fsr1h, status,2, status,0
 Tracked objects:
		On entry : 
		On exit  : 
		Unchanged: 
 Data sizes:     COMMON   BANK0   BANK1   BANK2   BANK3   BANK4   BANK5   BANK6   BANK7   BANK8   BANK9  BANK10  BANK11  BANK12  BANK13  BANK14  BANK15  BANK16  BANK17  BANK18  BANK19  BANK20  BANK21  BANK22  BANK23  BANK24  BANK25
      Params:         0       0       4       0       0       0       0       0       0       0       0       0       0       0       0       0       0       0       0       0       0       0       0       0       0       0       0
      Locals:         0       0       0       0       0       0       0       0       0       0       0       0       0       0       0       0       0       0       0       0       0       0       0       0       0       0       0
      Temps:          0       0       0       0       0       0       0       0       0       0       0       0       0       0       0       0       0       0       0       0       0       0       0       0       0       0       0
      Totals:         0       0       4       0       0       0       0       0       0       0       0       0       0       0       0       0       0       0       0       0       0       0       0       0       0       0       0
Total ram usage:        4 bytes
 Hardware stack levels used:    1
 Hardware stack levels required when called:   12
 This function calls:
		Nothing
 This function is called by:
		_main
 This function uses a non-reentrant model


 *************** function _fuel_get *****************
 Defined at:
		line 87 in file "fuel.c"
 Parameters:    Size  Location     Type
		None
 Auto vars:     Size  Location     Type
  tmp             2   61[BANK1 ] unsigned short 
 Return value:  Size  Location     Type
                  1    wreg      void 
 Registers used:
		wreg, fsr1l, fsr1h, status,2, status,0, pclath, cstack
 Tracked objects:
		On entry : 
		On exit  : 
		Unchanged: 
 Data sizes:     COMMON   BANK0   BANK1   BANK2   BANK3   BANK4   BANK5   BANK6   BANK7   BANK8   BANK9  BANK10  BANK11  BANK12  BANK13  BANK14  BANK15  BANK16  BANK17  BANK18  BANK19  BANK20  BANK21  BANK22  BANK23  BANK24  BANK25
      Params:         0       0       0       0       0       0       0       0       0       0       0       0       0       0       0       0       0       0       0       0       0       0       0       0       0       0       0
      Locals:         0       0       2       0       0       0       0       0       0       0       0       0       0       0       0       0       0       0       0       0       0       0       0       0       0       0       0
      Temps:          0       0       0       0       0       0       0       0       0       0       0       0       0       0       0       0       0       0       0       0       0       0       0       0       0       0       0
      Totals:         0       0       2       0       0       0       0       0       0       0       0       0       0       0       0       0       0       0       0       0       0       0       0       0       0       0       0
Total ram usage:        2 bytes
 Hardware stack levels used:    1
 Hardware stack levels required when called:   15
 This function calls:
		_ADC_GetConversion
		_PWM5_LoadDutyValue
		_fuel_low_check
		_fuel_percent_calculate
		_fuel_pwm_calculate
 This function is called by:
		_main
 This function uses a non-reentrant model


 *************** function _fuel_calibration *****************
 Defined at:
		line 118 in file "fuel.c"
 Parameters:    Size  Location     Type
		None
 Auto vars:     Size  Location     Type
  tmp             2   61[BANK1 ] unsigned short 
 Return value:  Size  Location     Type
                  1    wreg      void 
 Registers used:
		wreg, fsr1l, fsr1h, status,2, status,0, pclath, cstack
 Tracked objects:
		On entry : 
		On exit  : 
		Unchanged: 
 Data sizes:     COMMON   BANK0   BANK1   BANK2   BANK3   BANK4   BANK5   BANK6   BANK7   BANK8   BANK9  BANK10  BANK11  BANK12  BANK13  BANK14  BANK15  BANK16  BANK17  BANK18  BANK19  BANK20  BANK21  BANK22  BANK23  BANK24  BANK25
      Params:         0       0       0       0       0       0       0       0       0       0       0       0       0       0       0       0       0       0       0       0       0       0       0       0       0       0       0
      Locals:         0       0       2       0       0       0       0       0       0       0       0       0       0       0       0       0       0       0       0       0       0       0       0       0       0       0       0
      Temps:          0       0       0       0       0       0       0       0       0       0       0       0       0       0       0       0       0       0       0       0       0       0       0       0       0       0       0
      Totals:         0       0       2       0       0       0       0       0       0       0       0       0       0       0       0       0       0       0       0       0       0       0       0       0       0       0       0
Total ram usage:        2 bytes
 Hardware stack levels used:    1
 Hardware stack levels required when called:   15
 This function calls:
		_ADC_GetConversion
		_PWM5_LoadDutyValue
		_fuel_low_check
		_fuel_percent_calculate
		_fuel_pwm_calculate
		_fuel_uint_to_float
 This function is called by:
		_main
 This function uses a non-reentrant model


 *************** function _fuel_uint_to_float *****************
 Defined at:
		line 46 in file "fuel.c"
 Parameters:    Size  Location     Type
  value           2   48[BANK1 ] unsigned short 
 Auto vars:     Size  Location     Type
		None
 Return value:  Size  Location     Type
                  4   48[BANK1 ] float 
 Registers used:
		wreg, status,2, status,0, pclath, cstack
 Tracked objects:
		On entry : 
		On exit  : 
		Unchanged: 
 Data sizes:     COMMON   BANK0   BANK1   BANK2   BANK3   BANK4   BANK5   BANK6   BANK7   BANK8   BANK9  BANK10  BANK11  BANK12  BANK13  BANK14  BANK15  BANK16  BANK17  BANK18  BANK19  BANK20  BANK21  BANK22  BANK23  BANK24  BANK25
      Params:         0       0       4       0       0       0       0       0       0       0       0       0       0       0       0       0       0       0       0       0       0       0       0       0       0       0       0
      Locals:         0       0       0       0       0       0       0       0       0       0       0       0       0       0       0       0       0       0       0       0       0       0       0       0       0       0       0
      Temps:          0       0       0       0       0       0       0       0       0       0       0       0       0       0       0       0       0       0       0       0       0       0       0       0       0       0       0
      Totals:         0       0       4       0       0       0       0       0       0       0       0       0       0       0       0       0       0       0       0       0       0       0       0       0       0       0       0
Total ram usage:        4 bytes
 Hardware stack levels used:    1
 Hardware stack levels required when called:   14
 This function calls:
		___flmul
		___xxtofl
 This function is called by:
		_fuel_calibration
 This function uses a non-reentrant model


 *************** function _fuel_pwm_calculate *****************
 Defined at:
		line 34 in file "fuel.c"
 Parameters:    Size  Location     Type
		None
 Auto vars:     Size  Location     Type
		None
 Return value:  Size  Location     Type
                  2   59[BANK1 ] unsigned short 
 Registers used:
		wreg, fsr1l, fsr1h, status,2, status,0, pclath, cstack
 Tracked objects:
		On entry : 
		On exit  : 
		Unchanged: 
 Data sizes:     COMMON   BANK0   BANK1   BANK2   BANK3   BANK4   BANK5   BANK6   BANK7   BANK8   BANK9  BANK10  BANK11  BANK12  BANK13  BANK14  BANK15  BANK16  BANK17  BANK18  BANK19  BANK20  BANK21  BANK22  BANK23  BANK24  BANK25
      Params:         0       0       2       0       0       0       0       0       0       0       0       0       0       0       0       0       0       0       0       0       0       0       0       0       0       0       0
      Locals:         0       0       0       0       0       0       0       0       0       0       0       0       0       0       0       0       0       0       0       0       0       0       0       0       0       0       0
      Temps:          0       0       0       0       0       0       0       0       0       0       0       0       0       0       0       0       0       0       0       0       0       0       0       0       0       0       0
      Totals:         0       0       2       0       0       0       0       0       0       0       0       0       0       0       0       0       0       0       0       0       0       0       0       0       0       0       0
Total ram usage:        2 bytes
 Hardware stack levels used:    1
 Hardware stack levels required when called:   14
 This function calls:
		___flmul
		___fltol
		___xxtofl
 This function is called by:
		_fuel_init
		_fuel_get
		_fuel_calibration
 This function uses a non-reentrant model


 *************** function _fuel_percent_calculate *****************
 Defined at:
		line 40 in file "fuel.c"
 Parameters:    Size  Location     Type
		None
 Auto vars:     Size  Location     Type
		None
 Return value:  Size  Location     Type
                  1    wreg      unsigned char 
 Registers used:
		wreg, status,2, status,0, pclath, cstack
 Tracked objects:
		On entry : 
		On exit  : 
		Unchanged: 
 Data sizes:     COMMON   BANK0   BANK1   BANK2   BANK3   BANK4   BANK5   BANK6   BANK7   BANK8   BANK9  BANK10  BANK11  BANK12  BANK13  BANK14  BANK15  BANK16  BANK17  BANK18  BANK19  BANK20  BANK21  BANK22  BANK23  BANK24  BANK25
      Params:         0       0       0       0       0       0       0       0       0       0       0       0       0       0       0       0       0       0       0       0       0       0       0       0       0       0       0
      Locals:         0       0       0       0       0       0       0       0       0       0       0       0       0       0       0       0       0       0       0       0       0       0       0       0       0       0       0
      Temps:          0       0       1       0       0       0       0       0       0       0       0       0       0       0       0       0       0       0       0       0       0       0       0       0       0       0       0
      Totals:         0       0       1       0       0       0       0       0       0       0       0       0       0       0       0       0       0       0       0       0       0       0       0       0       0       0       0
Total ram usage:        1 bytes
 Hardware stack levels used:    1
 Hardware stack levels required when called:   14
 This function calls:
		___flmul
		___fltol
		___xxtofl
 This function is called by:
		_fuel_init
		_fuel_get
		_fuel_calibration
 This function uses a non-reentrant model


 *************** function ___xxtofl *****************
 Defined at:
		line 10 in file "/opt/microchip/xc8/v2.31/pic/sources/c99/common/xxtofl.c"
 Parameters:    Size  Location     Type
  sign            1    wreg     unsigned char 
  val             4    8[BANK1 ] long 
 Auto vars:     Size  Location     Type
  sign            1   16[BANK1 ] unsigned char 
  arg             4   18[BANK1 ] unsigned long 
  exp             1   17[BANK1 ] unsigned char 
 Return value:  Size  Location     Type
                  4    8[BANK1 ] unsigned char 
 Registers used:
		wreg, status,2, status,0
 Tracked objects:
		On entry : 
		On exit  : 
		Unchanged: 
 Data sizes:     COMMON   BANK0   BANK1   BANK2   BANK3   BANK4   BANK5   BANK6   BANK7   BANK8   BANK9  BANK10  BANK11  BANK12  BANK13  BANK14  BANK15  BANK16  BANK17  BANK18  BANK19  BANK20  BANK21  BANK22  BANK23  BANK24  BANK25
      Params:         0       0       4       0       0       0       0       0       0       0       0       0       0       0       0       0       0       0       0       0       0       0       0       0       0       0       0
      Locals:         0       0       6       0       0       0       0       0       0       0       0       0       0       0       0       0       0       0       0       0       0       0       0       0       0       0       0
      Temps:          0       0       4       0       0       0       0       0       0       0       0       0       0       0       0       0       0       0       0       0       0       0       0       0       0       0       0
      Totals:         0       0      14       0       0       0       0       0       0       0       0       0       0       0       0       0       0       0       0       0       0       0       0       0       0       0       0
Total ram usage:       14 bytes
 Hardware stack levels used:    1
 Hardware stack levels required when called:   12
 This function calls:
		Nothing
 This function is called by:
		_spd_uint_to_float
		_fuel_pwm_calculate
		_fuel_percent_calculate
		_fuel_uint_to_float
 This function uses a non-reentrant model


 *************** function ___fltol *****************
 Defined at:
		line 43 in file "/opt/microchip/xc8/v2.31/pic/sources/c99/common/fltol.c"
 Parameters:    Size  Location     Type
  f1              4   48[BANK1 ] unsigned char 
 Auto vars:     Size  Location     Type
  exp1            1   58[BANK1 ] unsigned char 
  sign1           1   57[BANK1 ] unsigned char 
 Return value:  Size  Location     Type
                  4   48[BANK1 ] long 
 Registers used:
		wreg, status,2, status,0
 Tracked objects:
		On entry : 
		On exit  : 
		Unchanged: 
 Data sizes:     COMMON   BANK0   BANK1   BANK2   BANK3   BANK4   BANK5   BANK6   BANK7   BANK8   BANK9  BANK10  BANK11  BANK12  BANK13  BANK14  BANK15  BANK16  BANK17  BANK18  BANK19  BANK20  BANK21  BANK22  BANK23  BANK24  BANK25
      Params:         0       0       4       0       0       0       0       0       0       0       0       0       0       0       0       0       0       0       0       0       0       0       0       0       0       0       0
      Locals:         0       0       2       0       0       0       0       0       0       0       0       0       0       0       0       0       0       0       0       0       0       0       0       0       0       0       0
      Temps:          0       0       5       0       0       0       0       0       0       0       0       0       0       0       0       0       0       0       0       0       0       0       0       0       0       0       0
      Totals:         0       0      11       0       0       0       0       0       0       0       0       0       0       0       0       0       0       0       0       0       0       0       0       0       0       0       0
Total ram usage:       11 bytes
 Hardware stack levels used:    1
 Hardware stack levels required when called:   12
 This function calls:
		Nothing
 This function is called by:
		_fuel_pwm_calculate
		_fuel_percent_calculate
 This function uses a non-reentrant model


 *************** function ___flmul *****************
 Defined at:
		line 8 in file "/opt/microchip/xc8/v2.31/pic/sources/c99/common/sprcmul.c"
 Parameters:    Size  Location     Type
  b               4   22[BANK1 ] long 
  a               4   26[BANK1 ] long 
 Auto vars:     Size  Location     Type
  prod            4   42[BANK1 ] struct .
  grs             4   37[BANK1 ] unsigned long 
  temp            2   46[BANK1 ] struct .
  bexp            1   41[BANK1 ] unsigned char 
  aexp            1   36[BANK1 ] unsigned char 
  sign            1   35[BANK1 ] unsigned char 
 Return value:  Size  Location     Type
                  4   22[BANK1 ] unsigned char 
 Registers used:
		wreg, status,2, status,0, pclath, cstack
 Tracked objects:
		On entry : 
		On exit  : 
		Unchanged: 
 Data sizes:     COMMON   BANK0   BANK1   BANK2   BANK3   BANK4   BANK5   BANK6   BANK7   BANK8   BANK9  BANK10  BANK11  BANK12  BANK13  BANK14  BANK15  BANK16  BANK17  BANK18  BANK19  BANK20  BANK21  BANK22  BANK23  BANK24  BANK25
      Params:         0       0       8       0       0       0       0       0       0       0       0       0       0       0       0       0       0       0       0       0       0       0       0       0       0       0       0
      Locals:         0       0      13       0       0       0       0       0       0       0       0       0       0       0       0       0       0       0       0       0       0       0       0       0       0       0       0
      Temps:          0       0       5       0       0       0       0       0       0       0       0       0       0       0       0       0       0       0       0       0       0       0       0       0       0       0       0
      Totals:         0       0      26       0       0       0       0       0       0       0       0       0       0       0       0       0       0       0       0       0       0       0       0       0       0       0       0
Total ram usage:       26 bytes
 Hardware stack levels used:    1
 Hardware stack levels required when called:   13
 This function calls:
		__Umul8_16
 This function is called by:
		_spd_uint_to_float
		_fuel_pwm_calculate
		_fuel_percent_calculate
		_fuel_uint_to_float
 This function uses a non-reentrant model


 *************** function __Umul8_16 *****************
 Defined at:
		line 4 in file "/opt/microchip/xc8/v2.31/pic/sources/c99/common/Umul8_16.c"
 Parameters:    Size  Location     Type
  multiplier      1    wreg     unsigned char 
  multiplicand    1    8[BANK1 ] unsigned char 
 Auto vars:     Size  Location     Type
  multiplier      1   16[BANK1 ] unsigned char 
  word_mpld       2   14[BANK1 ] unsigned int 
  product         2   12[BANK1 ] unsigned int 
 Return value:  Size  Location     Type
                  2    8[BANK1 ] unsigned int 
 Registers used:
		wreg, status,2, status,0
 Tracked objects:
		On entry : 
		On exit  : 
		Unchanged: 
 Data sizes:     COMMON   BANK0   BANK1   BANK2   BANK3   BANK4   BANK5   BANK6   BANK7   BANK8   BANK9  BANK10  BANK11  BANK12  BANK13  BANK14  BANK15  BANK16  BANK17  BANK18  BANK19  BANK20  BANK21  BANK22  BANK23  BANK24  BANK25
      Params:         0       0       2       0       0       0       0       0       0       0       0       0       0       0       0       0       0       0       0       0       0       0       0       0       0       0       0
      Locals:         0       0       5       0       0       0       0       0       0       0       0       0       0       0       0       0       0       0       0       0       0       0       0       0       0       0       0
      Temps:          0       0       2       0       0       0       0       0       0       0       0       0       0       0       0       0       0       0       0       0       0       0       0       0       0       0       0
      Totals:         0       0       9       0       0       0       0       0       0       0       0       0       0       0       0       0       0       0       0       0       0       0       0       0       0       0       0
Total ram usage:        9 bytes
 Hardware stack levels used:    1
 Hardware stack levels required when called:   12
 This function calls:
		Nothing
 This function is called by:
		___flmul
 This function uses a non-reentrant model


 *************** function _fuel_low_check *****************
 Defined at:
		line 51 in file "fuel.c"
 Parameters:    Size  Location     Type
		None
 Auto vars:     Size  Location     Type
		None
 Return value:  Size  Location     Type
                  1    wreg      void 
 Registers used:
		wreg, status,2, status,0, pclath, cstack
 Tracked objects:
		On entry : 
		On exit  : 
		Unchanged: 
 Data sizes:     COMMON   BANK0   BANK1   BANK2   BANK3   BANK4   BANK5   BANK6   BANK7   BANK8   BANK9  BANK10  BANK11  BANK12  BANK13  BANK14  BANK15  BANK16  BANK17  BANK18  BANK19  BANK20  BANK21  BANK22  BANK23  BANK24  BANK25
      Params:         0       0       0       0       0       0       0       0       0       0       0       0       0       0       0       0       0       0       0       0       0       0       0       0       0       0       0
      Locals:         0       0       0       0       0       0       0       0       0       0       0       0       0       0       0       0       0       0       0       0       0       0       0       0       0       0       0
      Temps:          0       0       1       0       0       0       0       0       0       0       0       0       0       0       0       0       0       0       0       0       0       0       0       0       0       0       0
      Totals:         0       0       1       0       0       0       0       0       0       0       0       0       0       0       0       0       0       0       0       0       0       0       0       0       0       0       0
Total ram usage:        1 bytes
 Hardware stack levels used:    1
 Hardware stack levels required when called:   13
 This function calls:
		_fuel_set_low
		_is_fuel_low
 This function is called by:
		_fuel_get
		_fuel_calibration
 This function uses a non-reentrant model


 *************** function _is_fuel_low *****************
 Defined at:
		line 138 in file "fuel.c"
 Parameters:    Size  Location     Type
		None
 Auto vars:     Size  Location     Type
		None
 Return value:  Size  Location     Type
                  1    wreg      _Bool 
 Registers used:
		wreg
 Tracked objects:
		On entry : 
		On exit  : 
		Unchanged: 
 Data sizes:     COMMON   BANK0   BANK1   BANK2   BANK3   BANK4   BANK5   BANK6   BANK7   BANK8   BANK9  BANK10  BANK11  BANK12  BANK13  BANK14  BANK15  BANK16  BANK17  BANK18  BANK19  BANK20  BANK21  BANK22  BANK23  BANK24  BANK25
      Params:         0       0       0       0       0       0       0       0       0       0       0       0       0       0       0       0       0       0       0       0       0       0       0       0       0       0       0
      Locals:         0       0       0       0       0       0       0       0       0       0       0       0       0       0       0       0       0       0       0       0       0       0       0       0       0       0       0
      Temps:          0       0       0       0       0       0       0       0       0       0       0       0       0       0       0       0       0       0       0       0       0       0       0       0       0       0       0
      Totals:         0       0       0       0       0       0       0       0       0       0       0       0       0       0       0       0       0       0       0       0       0       0       0       0       0       0       0
Total ram usage:        0 bytes
 Hardware stack levels used:    1
 Hardware stack levels required when called:   12
 This function calls:
		Nothing
 This function is called by:
		_fuel_low_check
 This function uses a non-reentrant model


 *************** function _fuel_set_low *****************
 Defined at:
		line 25 in file "fuel.c"
 Parameters:    Size  Location     Type
  var             1    wreg     _Bool 
 Auto vars:     Size  Location     Type
  var             1    9[BANK1 ] _Bool 
 Return value:  Size  Location     Type
                  1    wreg      void 
 Registers used:
		wreg, status,2, status,0
 Tracked objects:
		On entry : 
		On exit  : 
		Unchanged: 
 Data sizes:     COMMON   BANK0   BANK1   BANK2   BANK3   BANK4   BANK5   BANK6   BANK7   BANK8   BANK9  BANK10  BANK11  BANK12  BANK13  BANK14  BANK15  BANK16  BANK17  BANK18  BANK19  BANK20  BANK21  BANK22  BANK23  BANK24  BANK25
      Params:         0       0       0       0       0       0       0       0       0       0       0       0       0       0       0       0       0       0       0       0       0       0       0       0       0       0       0
      Locals:         0       0       1       0       0       0       0       0       0       0       0       0       0       0       0       0       0       0       0       0       0       0       0       0       0       0       0
      Temps:          0       0       1       0       0       0       0       0       0       0       0       0       0       0       0       0       0       0       0       0       0       0       0       0       0       0       0
      Totals:         0       0       2       0       0       0       0       0       0       0       0       0       0       0       0       0       0       0       0       0       0       0       0       0       0       0       0
Total ram usage:        2 bytes
 Hardware stack levels used:    1
 Hardware stack levels required when called:   12
 This function calls:
		Nothing
 This function is called by:
		_fuel_low_check
 This function uses a non-reentrant model


 *************** function _PWM5_LoadDutyValue *****************
 Defined at:
		line 74 in file "mcc_generated_files/pwm5.c"
 Parameters:    Size  Location     Type
  dutyValue       2    8[BANK1 ] unsigned short 
 Auto vars:     Size  Location     Type
		None
 Return value:  Size  Location     Type
                  1    wreg      void 
 Registers used:
		wreg, status,2, status,0
 Tracked objects:
		On entry : 
		On exit  : 
		Unchanged: 
 Data sizes:     COMMON   BANK0   BANK1   BANK2   BANK3   BANK4   BANK5   BANK6   BANK7   BANK8   BANK9  BANK10  BANK11  BANK12  BANK13  BANK14  BANK15  BANK16  BANK17  BANK18  BANK19  BANK20  BANK21  BANK22  BANK23  BANK24  BANK25
      Params:         0       0       2       0       0       0       0       0       0       0       0       0       0       0       0       0       0       0       0       0       0       0       0       0       0       0       0
      Locals:         0       0       0       0       0       0       0       0       0       0       0       0       0       0       0       0       0       0       0       0       0       0       0       0       0       0       0
      Temps:          0       0       2       0       0       0       0       0       0       0       0       0       0       0       0       0       0       0       0       0       0       0       0       0       0       0       0
      Totals:         0       0       4       0       0       0       0       0       0       0       0       0       0       0       0       0       0       0       0       0       0       0       0       0       0       0       0
Total ram usage:        4 bytes
 Hardware stack levels used:    1
 Hardware stack levels required when called:   12
 This function calls:
		Nothing
 This function is called by:
		_fuel_get
		_fuel_calibration
 This function uses a non-reentrant model


 *************** function _ADC_GetConversion *****************
 Defined at:
		line 115 in file "mcc_generated_files/adc.c"
 Parameters:    Size  Location     Type
  channel         1    wreg     enum E6327
 Auto vars:     Size  Location     Type
  channel         1   11[BANK1 ] enum E6327
 Return value:  Size  Location     Type
                  2    8[BANK1 ] unsigned short 
 Registers used:
		wreg, status,2, status,0
 Tracked objects:
		On entry : 
		On exit  : 
		Unchanged: 
 Data sizes:     COMMON   BANK0   BANK1   BANK2   BANK3   BANK4   BANK5   BANK6   BANK7   BANK8   BANK9  BANK10  BANK11  BANK12  BANK13  BANK14  BANK15  BANK16  BANK17  BANK18  BANK19  BANK20  BANK21  BANK22  BANK23  BANK24  BANK25
      Params:         0       0       2       0       0       0       0       0       0       0       0       0       0       0       0       0       0       0       0       0       0       0       0       0       0       0       0
      Locals:         0       0       1       0       0       0       0       0       0       0       0       0       0       0       0       0       0       0       0       0       0       0       0       0       0       0       0
      Temps:          0       0       1       0       0       0       0       0       0       0       0       0       0       0       0       0       0       0       0       0       0       0       0       0       0       0       0
      Totals:         0       0       4       0       0       0       0       0       0       0       0       0       0       0       0       0       0       0       0       0       0       0       0       0       0       0       0
Total ram usage:        4 bytes
 Hardware stack levels used:    1
 Hardware stack levels required when called:   12
 This function calls:
		Nothing
 This function is called by:
		_spd_k_calibration
		_spd_a_calibration
		_fuel_init
		_fuel_get
		_fuel_calibration
 This function uses a non-reentrant model


 *************** function _button_init *****************
 Defined at:
		line 25 in file "button.c"
 Parameters:    Size  Location     Type
		None
 Auto vars:     Size  Location     Type
		None
 Return value:  Size  Location     Type
                  1    wreg      void 
 Registers used:
		wreg, status,2, status,0, pclath, cstack
 Tracked objects:
		On entry : 
		On exit  : 
		Unchanged: 
 Data sizes:     COMMON   BANK0   BANK1   BANK2   BANK3   BANK4   BANK5   BANK6   BANK7   BANK8   BANK9  BANK10  BANK11  BANK12  BANK13  BANK14  BANK15  BANK16  BANK17  BANK18  BANK19  BANK20  BANK21  BANK22  BANK23  BANK24  BANK25
      Params:         0       0       0       0       0       0       0       0       0       0       0       0       0       0       0       0       0       0       0       0       0       0       0       0       0       0       0
      Locals:         0       0       0       0       0       0       0       0       0       0       0       0       0       0       0       0       0       0       0       0       0       0       0       0       0       0       0
      Temps:          0       0       1       0       0       0       0       0       0       0       0       0       0       0       0       0       0       0       0       0       0       0       0       0       0       0       0
      Totals:         0       0       1       0       0       0       0       0       0       0       0       0       0       0       0       0       0       0       0       0       0       0       0       0       0       0       0
Total ram usage:        1 bytes
 Hardware stack levels used:    1
 Hardware stack levels required when called:   13
 This function calls:
		_button_is_pressed
 This function is called by:
		_main
 This function uses a non-reentrant model


 *************** function _button_check *****************
 Defined at:
		line 38 in file "button.c"
 Parameters:    Size  Location     Type
		None
 Auto vars:     Size  Location     Type
		None
 Return value:  Size  Location     Type
                  1   38[BANK2 ] enum E6836
 Registers used:
		wreg, fsr0l, fsr0h, fsr1l, fsr1h, status,2, status,0, pclath, cstack
 Tracked objects:
		On entry : 
		On exit  : 
		Unchanged: 
 Data sizes:     COMMON   BANK0   BANK1   BANK2   BANK3   BANK4   BANK5   BANK6   BANK7   BANK8   BANK9  BANK10  BANK11  BANK12  BANK13  BANK14  BANK15  BANK16  BANK17  BANK18  BANK19  BANK20  BANK21  BANK22  BANK23  BANK24  BANK25
      Params:         0       0       0       2       0       0       0       0       0       0       0       0       0       0       0       0       0       0       0       0       0       0       0       0       0       0       0
      Locals:         0       0       0       0       0       0       0       0       0       0       0       0       0       0       0       0       0       0       0       0       0       0       0       0       0       0       0
      Temps:          0       0       0       2       0       0       0       0       0       0       0       0       0       0       0       0       0       0       0       0       0       0       0       0       0       0       0
      Totals:         0       0       0       4       0       0       0       0       0       0       0       0       0       0       0       0       0       0       0       0       0       0       0       0       0       0       0
Total ram usage:        4 bytes
 Hardware stack levels required when called:   16
 This function calls:
		_button_is_pressed
		_printf
		_puts
 This function is called by:
		_main
 This function uses a non-reentrant model


 *************** function _puts *****************
 Defined at:
		line 3 in file "/opt/microchip/xc8/v2.31/pic/sources/c99/common/puts.c"
 Parameters:    Size  Location     Type
  s               2   27[BANK1 ] PTR const unsigned char 
		 -> STR_22(44), STR_21(48), STR_20(33), STR_19(39), 
		 -> STR_18(36), STR_17(48), STR_16(30), STR_15(33), 
		 -> STR_14(33), STR_13(46), STR_10(31), STR_8(34), 
		 -> STR_7(25), STR_6(23), STR_5(29), STR_4(38), 
		 -> STR_3(27), STR_1(29), 
 Auto vars:     Size  Location     Type
  r               2    0        int 
 Return value:  Size  Location     Type
                  2   27[BANK1 ] int 
 Registers used:
		wreg, fsr0l, fsr0h, fsr1l, fsr1h, status,2, status,0, pclath, cstack
 Tracked objects:
		On entry : 
		On exit  : 
		Unchanged: 
 Data sizes:     COMMON   BANK0   BANK1   BANK2   BANK3   BANK4   BANK5   BANK6   BANK7   BANK8   BANK9  BANK10  BANK11  BANK12  BANK13  BANK14  BANK15  BANK16  BANK17  BANK18  BANK19  BANK20  BANK21  BANK22  BANK23  BANK24  BANK25
      Params:         0       0       3       0       0       0       0       0       0       0       0       0       0       0       0       0       0       0       0       0       0       0       0       0       0       0       0
      Locals:         0       0       3       0       0       0       0       0       0       0       0       0       0       0       0       0       0       0       0       0       0       0       0       0       0       0       0
      Temps:          0       0       0       0       0       0       0       0       0       0       0       0       0       0       0       0       0       0       0       0       0       0       0       0       0       0       0
      Totals:         0       0       6       0       0       0       0       0       0       0       0       0       0       0       0       0       0       0       0       0       0       0       0       0       0       0       0
Total ram usage:        6 bytes
 Hardware stack levels required when called:   16
 This function calls:
		_fputc
		_fputs
 This function is called by:
		_main
		_button_check
		_eeprom_read_error_handler
		_read_correction
		_write_correction
		_led_timer_call
		_fuel_auto_conversion
 This function uses a non-reentrant model


 *************** function _printf *****************
 Defined at:
		line 5 in file "/opt/microchip/xc8/v2.31/pic/sources/c99/common/printf.c"
 Parameters:    Size  Location     Type
  fmt             2   27[BANK2 ] PTR const unsigned char 
		 -> STR_12(12), STR_11(13), STR_9(29), STR_2(28), 
 Auto vars:     Size  Location     Type
  ret             2    0        int 
  ap              1   37[BANK2 ] PTR void [1]
		 -> ?_printf(2), 
 Return value:  Size  Location     Type
                  2   27[BANK2 ] int 
 Registers used:
		wreg, fsr0l, fsr0h, fsr1l, fsr1h, status,2, status,0, pclath, cstack
 Tracked objects:
		On entry : 
		On exit  : 
		Unchanged: 
 Data sizes:     COMMON   BANK0   BANK1   BANK2   BANK3   BANK4   BANK5   BANK6   BANK7   BANK8   BANK9  BANK10  BANK11  BANK12  BANK13  BANK14  BANK15  BANK16  BANK17  BANK18  BANK19  BANK20  BANK21  BANK22  BANK23  BANK24  BANK25
      Params:         0       0       0       7       0       0       0       0       0       0       0       0       0       0       0       0       0       0       0       0       0       0       0       0       0       0       0
      Locals:         0       0       0       3       0       0       0       0       0       0       0       0       0       0       0       0       0       0       0       0       0       0       0       0       0       0       0
      Temps:          0       0       0       1       0       0       0       0       0       0       0       0       0       0       0       0       0       0       0       0       0       0       0       0       0       0       0
      Totals:         0       0       0      11       0       0       0       0       0       0       0       0       0       0       0       0       0       0       0       0       0       0       0       0       0       0       0
Total ram usage:       11 bytes
 Hardware stack levels required when called:   16
 This function calls:
		_vfprintf
 This function is called by:
		_main
		_button_check
 This function uses a non-reentrant model


 *************** function _vfprintf *****************
 Defined at:
		line 1390 in file "/opt/microchip/xc8/v2.31/pic/sources/c99/common/doprnt.c"
 Parameters:    Size  Location     Type
  fp              1   17[BANK2 ] PTR struct _IO_FILE
		 -> NULL(0), 
  fmt             2   18[BANK2 ] PTR const unsigned char 
		 -> STR_12(12), STR_11(13), STR_9(29), STR_2(28), 
  ap              1   20[BANK2 ] PTR PTR void 
		 -> printf@ap(1), 
 Auto vars:     Size  Location     Type
  cfmt            2   25[BANK2 ] PTR unsigned char 
		 -> STR_12(12), STR_11(13), STR_9(29), STR_2(28), 
 Return value:  Size  Location     Type
                  2   17[BANK2 ] int 
 Registers used:
		wreg, fsr0l, fsr0h, fsr1l, fsr1h, status,2, status,0, pclath, cstack
 Tracked objects:
		On entry : 
		On exit  : 
		Unchanged: 
 Data sizes:     COMMON   BANK0   BANK1   BANK2   BANK3   BANK4   BANK5   BANK6   BANK7   BANK8   BANK9  BANK10  BANK11  BANK12  BANK13  BANK14  BANK15  BANK16  BANK17  BANK18  BANK19  BANK20  BANK21  BANK22  BANK23  BANK24  BANK25
      Params:         0       0       0       5       0       0       0       0       0       0       0       0       0       0       0       0       0       0       0       0       0       0       0       0       0       0       0
      Locals:         0       0       0       2       0       0       0       0       0       0       0       0       0       0       0       0       0       0       0       0       0       0       0       0       0       0       0
      Temps:          0       0       0       3       0       0       0       0       0       0       0       0       0       0       0       0       0       0       0       0       0       0       0       0       0       0       0
      Totals:         0       0       0      10       0       0       0       0       0       0       0       0       0       0       0       0       0       0       0       0       0       0       0       0       0       0       0
Total ram usage:       10 bytes
 Hardware stack levels required when called:   16
 This function calls:
		_vfpfcnvrt
 This function is called by:
		_printf
 This function uses a non-reentrant model


 *************** function _vfpfcnvrt *****************
 Defined at:
		line 692 in file "/opt/microchip/xc8/v2.31/pic/sources/c99/common/doprnt.c"
 Parameters:    Size  Location     Type
  fp              1    0[BANK2 ] PTR struct _IO_FILE
		 -> NULL(0), 
  fmt             1    1[BANK2 ] PTR PTR unsigned char 
		 -> vfprintf@cfmt(2), 
  ap              1    2[BANK2 ] PTR PTR void 
		 -> printf@ap(1), 
 Auto vars:     Size  Location     Type
  ll              8    9[BANK2 ] long long 
  llu             8    0        unsigned long long 
  f               4    0        unsigned long long 
  ct              3    0        unsigned char [3]
  vp              2    0        PTR void 
  i               2    0        int 
  done            2    0        int 
  cp              2    0        PTR unsigned char 
  c               1    0        unsigned char 
 Return value:  Size  Location     Type
                  2    0[BANK2 ] int 
 Registers used:
		wreg, fsr0l, fsr0h, fsr1l, fsr1h, status,2, status,0, pclath, cstack
 Tracked objects:
		On entry : 
		On exit  : 
		Unchanged: 
 Data sizes:     COMMON   BANK0   BANK1   BANK2   BANK3   BANK4   BANK5   BANK6   BANK7   BANK8   BANK9  BANK10  BANK11  BANK12  BANK13  BANK14  BANK15  BANK16  BANK17  BANK18  BANK19  BANK20  BANK21  BANK22  BANK23  BANK24  BANK25
      Params:         0       0       0       4       0       0       0       0       0       0       0       0       0       0       0       0       0       0       0       0       0       0       0       0       0       0       0
      Locals:         0       0       0       8       0       0       0       0       0       0       0       0       0       0       0       0       0       0       0       0       0       0       0       0       0       0       0
      Temps:          0       0       0       5       0       0       0       0       0       0       0       0       0       0       0       0       0       0       0       0       0       0       0       0       0       0       0
      Totals:         0       0       0      17       0       0       0       0       0       0       0       0       0       0       0       0       0       0       0       0       0       0       0       0       0       0       0
Total ram usage:       17 bytes
 Hardware stack levels required when called:   16
 This function calls:
		_dtoa
		_fputc
 This function is called by:
		_vfprintf
 This function uses a non-reentrant model


 *************** function _dtoa *****************
 Defined at:
		line 287 in file "/opt/microchip/xc8/v2.31/pic/sources/c99/common/doprnt.c"
 Parameters:    Size  Location     Type
  fp              1   37[BANK1 ] PTR struct _IO_FILE
		 -> NULL(0), 
  d               8   38[BANK1 ] long long 
 Auto vars:     Size  Location     Type
  n               8   58[BANK1 ] long long 
  i               2   66[BANK1 ] int 
  s               2   56[BANK1 ] int 
  w               2   54[BANK1 ] int 
  p               2   52[BANK1 ] int 
 Return value:  Size  Location     Type
                  2   37[BANK1 ] int 
 Registers used:
		wreg, fsr0l, fsr0h, fsr1l, fsr1h, status,2, status,0, pclath, cstack
 Tracked objects:
		On entry : 
		On exit  : 
		Unchanged: 
 Data sizes:     COMMON   BANK0   BANK1   BANK2   BANK3   BANK4   BANK5   BANK6   BANK7   BANK8   BANK9  BANK10  BANK11  BANK12  BANK13  BANK14  BANK15  BANK16  BANK17  BANK18  BANK19  BANK20  BANK21  BANK22  BANK23  BANK24  BANK25
      Params:         0       0      10       0       0       0       0       0       0       0       0       0       0       0       0       0       0       0       0       0       0       0       0       0       0       0       0
      Locals:         0       0      18       0       0       0       0       0       0       0       0       0       0       0       0       0       0       0       0       0       0       0       0       0       0       0       0
      Temps:          0       0       3       0       0       0       0       0       0       0       0       0       0       0       0       0       0       0       0       0       0       0       0       0       0       0       0
      Totals:         0       0      31       0       0       0       0       0       0       0       0       0       0       0       0       0       0       0       0       0       0       0       0       0       0       0       0
Total ram usage:       31 bytes
 Hardware stack levels required when called:   16
 This function calls:
		___aodiv
		___aomod
		_abs
		_pad
 This function is called by:
		_vfpfcnvrt
 This function uses a non-reentrant model


 *************** function _pad *****************
 Defined at:
		line 72 in file "/opt/microchip/xc8/v2.31/pic/sources/c99/common/doprnt.c"
 Parameters:    Size  Location     Type
  fp              1   27[BANK1 ] PTR struct _IO_FILE
		 -> NULL(0), 
  buf             1   28[BANK1 ] PTR unsigned char 
		 -> dbuf(32), 
  p               2   29[BANK1 ] int 
 Auto vars:     Size  Location     Type
  w               2   35[BANK1 ] int 
  i               2   33[BANK1 ] int 
 Return value:  Size  Location     Type
                  2   27[BANK1 ] int 
 Registers used:
		wreg, fsr0l, fsr0h, fsr1l, fsr1h, status,2, status,0, pclath, cstack
 Tracked objects:
		On entry : 
		On exit  : 
		Unchanged: 
 Data sizes:     COMMON   BANK0   BANK1   BANK2   BANK3   BANK4   BANK5   BANK6   BANK7   BANK8   BANK9  BANK10  BANK11  BANK12  BANK13  BANK14  BANK15  BANK16  BANK17  BANK18  BANK19  BANK20  BANK21  BANK22  BANK23  BANK24  BANK25
      Params:         0       0       5       0       0       0       0       0       0       0       0       0       0       0       0       0       0       0       0       0       0       0       0       0       0       0       0
      Locals:         0       0       4       0       0       0       0       0       0       0       0       0       0       0       0       0       0       0       0       0       0       0       0       0       0       0       0
      Temps:          0       0       1       0       0       0       0       0       0       0       0       0       0       0       0       0       0       0       0       0       0       0       0       0       0       0       0
      Totals:         0       0      10       0       0       0       0       0       0       0       0       0       0       0       0       0       0       0       0       0       0       0       0       0       0       0       0
Total ram usage:       10 bytes
 Hardware stack levels required when called:   16
 This function calls:
		_fputc
		_fputs
		_strlen
 This function is called by:
		_dtoa
 This function uses a non-reentrant model


 *************** function _strlen *****************
 Defined at:
		line 5 in file "/opt/microchip/xc8/v2.31/pic/sources/c99/common/strlen.c"
 Parameters:    Size  Location     Type
  s               1    wreg     PTR const unsigned char 
		 -> dbuf(32), 
 Auto vars:     Size  Location     Type
  s               1   12[BANK1 ] PTR const unsigned char 
		 -> dbuf(32), 
  a               1   11[BANK1 ] PTR const unsigned char 
		 -> dbuf(32), 
 Return value:  Size  Location     Type
                  2    8[BANK1 ] unsigned int 
 Registers used:
		wreg, fsr1l, fsr1h, status,2, status,0
 Tracked objects:
		On entry : 
		On exit  : 
		Unchanged: 
 Data sizes:     COMMON   BANK0   BANK1   BANK2   BANK3   BANK4   BANK5   BANK6   BANK7   BANK8   BANK9  BANK10  BANK11  BANK12  BANK13  BANK14  BANK15  BANK16  BANK17  BANK18  BANK19  BANK20  BANK21  BANK22  BANK23  BANK24  BANK25
      Params:         0       0       2       0       0       0       0       0       0       0       0       0       0       0       0       0       0       0       0       0       0       0       0       0       0       0       0
      Locals:         0       0       2       0       0       0       0       0       0       0       0       0       0       0       0       0       0       0       0       0       0       0       0       0       0       0       0
      Temps:          0       0       1       0       0       0       0       0       0       0       0       0       0       0       0       0       0       0       0       0       0       0       0       0       0       0       0
      Totals:         0       0       5       0       0       0       0       0       0       0       0       0       0       0       0       0       0       0       0       0       0       0       0       0       0       0       0
Total ram usage:        5 bytes
 Hardware stack levels used:    1
 Hardware stack levels required when called:   12
 This function calls:
		Nothing
 This function is called by:
		_pad
 This function uses a non-reentrant model


 *************** function _fputs *****************
 Defined at:
		line 8 in file "/opt/microchip/xc8/v2.31/pic/sources/c99/common/nf_fputs.c"
 Parameters:    Size  Location     Type
  s               2   18[BANK1 ] PTR const unsigned char 
		 -> dbuf(32), STR_22(44), STR_21(48), STR_20(33), 
		 -> STR_19(39), STR_18(36), STR_17(48), STR_16(30), 
		 -> STR_15(33), STR_14(33), STR_13(46), STR_10(31), 
		 -> STR_8(34), STR_7(25), STR_6(23), STR_5(29), 
		 -> STR_4(38), STR_3(27), STR_1(29), 
  fp              1   20[BANK1 ] PTR struct _IO_FILE
		 -> NULL(0), 
 Auto vars:     Size  Location     Type
  i               2   25[BANK1 ] int 
  c               1   24[BANK1 ] unsigned char 
 Return value:  Size  Location     Type
                  2   18[BANK1 ] int 
 Registers used:
		wreg, fsr0l, fsr0h, fsr1l, fsr1h, status,2, status,0, pclath, cstack
 Tracked objects:
		On entry : 
		On exit  : 
		Unchanged: 
 Data sizes:     COMMON   BANK0   BANK1   BANK2   BANK3   BANK4   BANK5   BANK6   BANK7   BANK8   BANK9  BANK10  BANK11  BANK12  BANK13  BANK14  BANK15  BANK16  BANK17  BANK18  BANK19  BANK20  BANK21  BANK22  BANK23  BANK24  BANK25
      Params:         0       0       3       0       0       0       0       0       0       0       0       0       0       0       0       0       0       0       0       0       0       0       0       0       0       0       0
      Locals:         0       0       3       0       0       0       0       0       0       0       0       0       0       0       0       0       0       0       0       0       0       0       0       0       0       0       0
      Temps:          0       0       3       0       0       0       0       0       0       0       0       0       0       0       0       0       0       0       0       0       0       0       0       0       0       0       0
      Totals:         0       0       9       0       0       0       0       0       0       0       0       0       0       0       0       0       0       0       0       0       0       0       0       0       0       0       0
Total ram usage:        9 bytes
 Hardware stack levels used:    1
 Hardware stack levels required when called:   15
 This function calls:
		_fputc
 This function is called by:
		_pad
		_puts
 This function uses a non-reentrant model


 *************** function _fputc *****************
 Defined at:
		line 8 in file "/opt/microchip/xc8/v2.31/pic/sources/c99/common/nf_fputc.c"
 Parameters:    Size  Location     Type
  c               2   10[BANK1 ] int 
  fp              1   12[BANK1 ] PTR struct _IO_FILE
		 -> NULL(0), 
 Auto vars:     Size  Location     Type
		None
 Return value:  Size  Location     Type
                  2   10[BANK1 ] int 
 Registers used:
		wreg, fsr1l, fsr1h, status,2, status,0, pclath, cstack
 Tracked objects:
		On entry : 
		On exit  : 
		Unchanged: 
 Data sizes:     COMMON   BANK0   BANK1   BANK2   BANK3   BANK4   BANK5   BANK6   BANK7   BANK8   BANK9  BANK10  BANK11  BANK12  BANK13  BANK14  BANK15  BANK16  BANK17  BANK18  BANK19  BANK20  BANK21  BANK22  BANK23  BANK24  BANK25
      Params:         0       0       3       0       0       0       0       0       0       0       0       0       0       0       0       0       0       0       0       0       0       0       0       0       0       0       0
      Locals:         0       0       0       0       0       0       0       0       0       0       0       0       0       0       0       0       0       0       0       0       0       0       0       0       0       0       0
      Temps:          0       0       5       0       0       0       0       0       0       0       0       0       0       0       0       0       0       0       0       0       0       0       0       0       0       0       0
      Totals:         0       0       8       0       0       0       0       0       0       0       0       0       0       0       0       0       0       0       0       0       0       0       0       0       0       0       0
Total ram usage:        8 bytes
 Hardware stack levels used:    1
 Hardware stack levels required when called:   14
 This function calls:
		_putch
 This function is called by:
		_pad
		_vfpfcnvrt
		_fputs
		_puts
 This function uses a non-reentrant model


 *************** function _putch *****************
 Defined at:
		line 154 in file "mcc_generated_files/eusart.c"
 Parameters:    Size  Location     Type
  txData          1    wreg     unsigned char 
 Auto vars:     Size  Location     Type
  txData          1    9[BANK1 ] unsigned char 
 Return value:  Size  Location     Type
                  1    wreg      void 
 Registers used:
		wreg, status,2, status,0, pclath, cstack
 Tracked objects:
		On entry : 
		On exit  : 
		Unchanged: 
 Data sizes:     COMMON   BANK0   BANK1   BANK2   BANK3   BANK4   BANK5   BANK6   BANK7   BANK8   BANK9  BANK10  BANK11  BANK12  BANK13  BANK14  BANK15  BANK16  BANK17  BANK18  BANK19  BANK20  BANK21  BANK22  BANK23  BANK24  BANK25
      Params:         0       0       0       0       0       0       0       0       0       0       0       0       0       0       0       0       0       0       0       0       0       0       0       0       0       0       0
      Locals:         0       0       1       0       0       0       0       0       0       0       0       0       0       0       0       0       0       0       0       0       0       0       0       0       0       0       0
      Temps:          0       0       0       0       0       0       0       0       0       0       0       0       0       0       0       0       0       0       0       0       0       0       0       0       0       0       0
      Totals:         0       0       1       0       0       0       0       0       0       0       0       0       0       0       0       0       0       0       0       0       0       0       0       0       0       0       0
Total ram usage:        1 bytes
 Hardware stack levels used:    1
 Hardware stack levels required when called:   13
 This function calls:
		_EUSART_Write
 This function is called by:
		_fputc
 This function uses a non-reentrant model


 *************** function _EUSART_Write *****************
 Defined at:
		line 138 in file "mcc_generated_files/eusart.c"
 Parameters:    Size  Location     Type
  txData          1    wreg     unsigned char 
 Auto vars:     Size  Location     Type
  txData          1    8[BANK1 ] unsigned char 
 Return value:  Size  Location     Type
                  1    wreg      void 
 Registers used:
		wreg
 Tracked objects:
		On entry : 
		On exit  : 
		Unchanged: 
 Data sizes:     COMMON   BANK0   BANK1   BANK2   BANK3   BANK4   BANK5   BANK6   BANK7   BANK8   BANK9  BANK10  BANK11  BANK12  BANK13  BANK14  BANK15  BANK16  BANK17  BANK18  BANK19  BANK20  BANK21  BANK22  BANK23  BANK24  BANK25
      Params:         0       0       0       0       0       0       0       0       0       0       0       0       0       0       0       0       0       0       0       0       0       0       0       0       0       0       0
      Locals:         0       0       1       0       0       0       0       0       0       0       0       0       0       0       0       0       0       0       0       0       0       0       0       0       0       0       0
      Temps:          0       0       0       0       0       0       0       0       0       0       0       0       0       0       0       0       0       0       0       0       0       0       0       0       0       0       0
      Totals:         0       0       1       0       0       0       0       0       0       0       0       0       0       0       0       0       0       0       0       0       0       0       0       0       0       0       0
Total ram usage:        1 bytes
 Hardware stack levels used:    1
 Hardware stack levels required when called:   12
 This function calls:
		Nothing
 This function is called by:
		_putch
 This function uses a non-reentrant model


 *************** function _abs *****************
 Defined at:
		line 1 in file "/opt/microchip/xc8/v2.31/pic/sources/c99/common/abs.c"
 Parameters:    Size  Location     Type
  a               2   27[BANK1 ] int 
 Auto vars:     Size  Location     Type
		None
 Return value:  Size  Location     Type
                  2   27[BANK1 ] int 
 Registers used:
		wreg, status,2, status,0
 Tracked objects:
		On entry : 
		On exit  : 
		Unchanged: 
 Data sizes:     COMMON   BANK0   BANK1   BANK2   BANK3   BANK4   BANK5   BANK6   BANK7   BANK8   BANK9  BANK10  BANK11  BANK12  BANK13  BANK14  BANK15  BANK16  BANK17  BANK18  BANK19  BANK20  BANK21  BANK22  BANK23  BANK24  BANK25
      Params:         0       0       2       0       0       0       0       0       0       0       0       0       0       0       0       0       0       0       0       0       0       0       0       0       0       0       0
      Locals:         0       0       0       0       0       0       0       0       0       0       0       0       0       0       0       0       0       0       0       0       0       0       0       0       0       0       0
      Temps:          0       0       2       0       0       0       0       0       0       0       0       0       0       0       0       0       0       0       0       0       0       0       0       0       0       0       0
      Totals:         0       0       4       0       0       0       0       0       0       0       0       0       0       0       0       0       0       0       0       0       0       0       0       0       0       0       0
Total ram usage:        4 bytes
 Hardware stack levels used:    1
 Hardware stack levels required when called:   12
 This function calls:
		Nothing
 This function is called by:
		_dtoa
 This function uses a non-reentrant model


 *************** function ___aomod *****************
 Defined at:
		line 7 in file "/opt/microchip/xc8/v2.31/pic/sources/c99/common/aomod.c"
 Parameters:    Size  Location     Type
  divisor         8    8[BANK1 ] long long 
  dividend        8   16[BANK1 ] long long 
 Auto vars:     Size  Location     Type
  sign            1   26[BANK1 ] unsigned char 
  counter         1   25[BANK1 ] unsigned char 
 Return value:  Size  Location     Type
                  8    8[BANK1 ] long long 
 Registers used:
		wreg, fsr1l, fsr1h, status,2, status,0
 Tracked objects:
		On entry : 
		On exit  : 
		Unchanged: 
 Data sizes:     COMMON   BANK0   BANK1   BANK2   BANK3   BANK4   BANK5   BANK6   BANK7   BANK8   BANK9  BANK10  BANK11  BANK12  BANK13  BANK14  BANK15  BANK16  BANK17  BANK18  BANK19  BANK20  BANK21  BANK22  BANK23  BANK24  BANK25
      Params:         0       0      16       0       0       0       0       0       0       0       0       0       0       0       0       0       0       0       0       0       0       0       0       0       0       0       0
      Locals:         0       0       2       0       0       0       0       0       0       0       0       0       0       0       0       0       0       0       0       0       0       0       0       0       0       0       0
      Temps:          0       0       1       0       0       0       0       0       0       0       0       0       0       0       0       0       0       0       0       0       0       0       0       0       0       0       0
      Totals:         0       0      19       0       0       0       0       0       0       0       0       0       0       0       0       0       0       0       0       0       0       0       0       0       0       0       0
Total ram usage:       19 bytes
 Hardware stack levels used:    1
 Hardware stack levels required when called:   12
 This function calls:
		Nothing
 This function is called by:
		_dtoa
 This function uses a non-reentrant model


 *************** function ___aodiv *****************
 Defined at:
		line 7 in file "/opt/microchip/xc8/v2.31/pic/sources/c99/common/aodiv.c"
 Parameters:    Size  Location     Type
  divisor         8    8[BANK1 ] long long 
  dividend        8   16[BANK1 ] long long 
 Auto vars:     Size  Location     Type
  quotient        8   27[BANK1 ] long long 
  sign            1   26[BANK1 ] unsigned char 
  counter         1   25[BANK1 ] unsigned char 
 Return value:  Size  Location     Type
                  8    8[BANK1 ] long long 
 Registers used:
		wreg, fsr1l, fsr1h, status,2, status,0
 Tracked objects:
		On entry : 
		On exit  : 
		Unchanged: 
 Data sizes:     COMMON   BANK0   BANK1   BANK2   BANK3   BANK4   BANK5   BANK6   BANK7   BANK8   BANK9  BANK10  BANK11  BANK12  BANK13  BANK14  BANK15  BANK16  BANK17  BANK18  BANK19  BANK20  BANK21  BANK22  BANK23  BANK24  BANK25
      Params:         0       0      16       0       0       0       0       0       0       0       0       0       0       0       0       0       0       0       0       0       0       0       0       0       0       0       0
      Locals:         0       0      10       0       0       0       0       0       0       0       0       0       0       0       0       0       0       0       0       0       0       0       0       0       0       0       0
      Temps:          0       0       1       0       0       0       0       0       0       0       0       0       0       0       0       0       0       0       0       0       0       0       0       0       0       0       0
      Totals:         0       0      27       0       0       0       0       0       0       0       0       0       0       0       0       0       0       0       0       0       0       0       0       0       0       0       0
Total ram usage:       27 bytes
 Hardware stack levels used:    1
 Hardware stack levels required when called:   12
 This function calls:
		Nothing
 This function is called by:
		_dtoa
 This function uses a non-reentrant model


 *************** function _button_is_pressed *****************
 Defined at:
		line 32 in file "button.c"
 Parameters:    Size  Location     Type
		None
 Auto vars:     Size  Location     Type
		None
 Return value:  Size  Location     Type
                  1    wreg      _Bool 
 Registers used:
		wreg, status,2, status,0
 Tracked objects:
		On entry : 
		On exit  : 
		Unchanged: 
 Data sizes:     COMMON   BANK0   BANK1   BANK2   BANK3   BANK4   BANK5   BANK6   BANK7   BANK8   BANK9  BANK10  BANK11  BANK12  BANK13  BANK14  BANK15  BANK16  BANK17  BANK18  BANK19  BANK20  BANK21  BANK22  BANK23  BANK24  BANK25
      Params:         0       0       0       0       0       0       0       0       0       0       0       0       0       0       0       0       0       0       0       0       0       0       0       0       0       0       0
      Locals:         0       0       0       0       0       0       0       0       0       0       0       0       0       0       0       0       0       0       0       0       0       0       0       0       0       0       0
      Temps:          0       0       1       0       0       0       0       0       0       0       0       0       0       0       0       0       0       0       0       0       0       0       0       0       0       0       0
      Totals:         0       0       1       0       0       0       0       0       0       0       0       0       0       0       0       0       0       0       0       0       0       0       0       0       0       0       0
Total ram usage:        1 bytes
 Hardware stack levels used:    1
 Hardware stack levels required when called:   12
 This function calls:
		Nothing
 This function is called by:
		_button_init
		_button_check
 This function uses a non-reentrant model


 *************** function _SYSTEM_Initialize *****************
 Defined at:
		line 50 in file "mcc_generated_files/mcc.c"
 Parameters:    Size  Location     Type
		None
 Auto vars:     Size  Location     Type
		None
 Return value:  Size  Location     Type
                  1    wreg      void 
 Registers used:
		wreg, status,2, status,0, pclath, cstack
 Tracked objects:
		On entry : 
		On exit  : 
		Unchanged: 
 Data sizes:     COMMON   BANK0   BANK1   BANK2   BANK3   BANK4   BANK5   BANK6   BANK7   BANK8   BANK9  BANK10  BANK11  BANK12  BANK13  BANK14  BANK15  BANK16  BANK17  BANK18  BANK19  BANK20  BANK21  BANK22  BANK23  BANK24  BANK25
      Params:         0       0       0       0       0       0       0       0       0       0       0       0       0       0       0       0       0       0       0       0       0       0       0       0       0       0       0
      Locals:         0       0       0       0       0       0       0       0       0       0       0       0       0       0       0       0       0       0       0       0       0       0       0       0       0       0       0
      Temps:          0       0       0       0       0       0       0       0       0       0       0       0       0       0       0       0       0       0       0       0       0       0       0       0       0       0       0
      Totals:         0       0       0       0       0       0       0       0       0       0       0       0       0       0       0       0       0       0       0       0       0       0       0       0       0       0       0
Total ram usage:        0 bytes
 Hardware stack levels used:    1
 Hardware stack levels required when called:   14
 This function calls:
		_ADC_Initialize
		_EUSART_Initialize
		_OSCILLATOR_Initialize
		_PIN_MANAGER_Initialize
		_PMD_Initialize
		_PWM5_Initialize
		_PWM6_Initialize
		_TMR0_Initialize
		_TMR1_Initialize
		_TMR2_Initialize
		_TMR3_Initialize
		_TMR4_Initialize
		_TMR6_Initialize
		_WDT_Initialize
 This function is called by:
		_main
 This function uses a non-reentrant model


 *************** function _WDT_Initialize *****************
 Defined at:
		line 83 in file "mcc_generated_files/mcc.c"
 Parameters:    Size  Location     Type
		None
 Auto vars:     Size  Location     Type
		None
 Return value:  Size  Location     Type
                  1    wreg      void 
 Registers used:
		wreg
 Tracked objects:
		On entry : 
		On exit  : 
		Unchanged: 
 Data sizes:     COMMON   BANK0   BANK1   BANK2   BANK3   BANK4   BANK5   BANK6   BANK7   BANK8   BANK9  BANK10  BANK11  BANK12  BANK13  BANK14  BANK15  BANK16  BANK17  BANK18  BANK19  BANK20  BANK21  BANK22  BANK23  BANK24  BANK25
      Params:         0       0       0       0       0       0       0       0       0       0       0       0       0       0       0       0       0       0       0       0       0       0       0       0       0       0       0
      Locals:         0       0       0       0       0       0       0       0       0       0       0       0       0       0       0       0       0       0       0       0       0       0       0       0       0       0       0
      Temps:          0       0       0       0       0       0       0       0       0       0       0       0       0       0       0       0       0       0       0       0       0       0       0       0       0       0       0
      Totals:         0       0       0       0       0       0       0       0       0       0       0       0       0       0       0       0       0       0       0       0       0       0       0       0       0       0       0
Total ram usage:        0 bytes
 Hardware stack levels used:    1
 Hardware stack levels required when called:   12
 This function calls:
		Nothing
 This function is called by:
		_SYSTEM_Initialize
 This function uses a non-reentrant model


 *************** function _TMR6_Initialize *****************
 Defined at:
		line 62 in file "mcc_generated_files/tmr6.c"
 Parameters:    Size  Location     Type
		None
 Auto vars:     Size  Location     Type
		None
 Return value:  Size  Location     Type
                  1    wreg      void 
 Registers used:
		wreg, status,2
 Tracked objects:
		On entry : 
		On exit  : 
		Unchanged: 
 Data sizes:     COMMON   BANK0   BANK1   BANK2   BANK3   BANK4   BANK5   BANK6   BANK7   BANK8   BANK9  BANK10  BANK11  BANK12  BANK13  BANK14  BANK15  BANK16  BANK17  BANK18  BANK19  BANK20  BANK21  BANK22  BANK23  BANK24  BANK25
      Params:         0       0       0       0       0       0       0       0       0       0       0       0       0       0       0       0       0       0       0       0       0       0       0       0       0       0       0
      Locals:         0       0       0       0       0       0       0       0       0       0       0       0       0       0       0       0       0       0       0       0       0       0       0       0       0       0       0
      Temps:          0       0       0       0       0       0       0       0       0       0       0       0       0       0       0       0       0       0       0       0       0       0       0       0       0       0       0
      Totals:         0       0       0       0       0       0       0       0       0       0       0       0       0       0       0       0       0       0       0       0       0       0       0       0       0       0       0
Total ram usage:        0 bytes
 Hardware stack levels used:    1
 Hardware stack levels required when called:   12
 This function calls:
		Nothing
 This function is called by:
		_SYSTEM_Initialize
 This function uses a non-reentrant model


 *************** function _TMR4_Initialize *****************
 Defined at:
		line 62 in file "mcc_generated_files/tmr4.c"
 Parameters:    Size  Location     Type
		None
 Auto vars:     Size  Location     Type
		None
 Return value:  Size  Location     Type
                  1    wreg      void 
 Registers used:
		wreg, status,2
 Tracked objects:
		On entry : 
		On exit  : 
		Unchanged: 
 Data sizes:     COMMON   BANK0   BANK1   BANK2   BANK3   BANK4   BANK5   BANK6   BANK7   BANK8   BANK9  BANK10  BANK11  BANK12  BANK13  BANK14  BANK15  BANK16  BANK17  BANK18  BANK19  BANK20  BANK21  BANK22  BANK23  BANK24  BANK25
      Params:         0       0       0       0       0       0       0       0       0       0       0       0       0       0       0       0       0       0       0       0       0       0       0       0       0       0       0
      Locals:         0       0       0       0       0       0       0       0       0       0       0       0       0       0       0       0       0       0       0       0       0       0       0       0       0       0       0
      Temps:          0       0       0       0       0       0       0       0       0       0       0       0       0       0       0       0       0       0       0       0       0       0       0       0       0       0       0
      Totals:         0       0       0       0       0       0       0       0       0       0       0       0       0       0       0       0       0       0       0       0       0       0       0       0       0       0       0
Total ram usage:        0 bytes
 Hardware stack levels used:    1
 Hardware stack levels required when called:   12
 This function calls:
		Nothing
 This function is called by:
		_SYSTEM_Initialize
 This function uses a non-reentrant model


 *************** function _TMR3_Initialize *****************
 Defined at:
		line 63 in file "mcc_generated_files/tmr3.c"
 Parameters:    Size  Location     Type
		None
 Auto vars:     Size  Location     Type
		None
 Return value:  Size  Location     Type
                  1    wreg      void 
 Registers used:
		wreg, status,2
 Tracked objects:
		On entry : 
		On exit  : 
		Unchanged: 
 Data sizes:     COMMON   BANK0   BANK1   BANK2   BANK3   BANK4   BANK5   BANK6   BANK7   BANK8   BANK9  BANK10  BANK11  BANK12  BANK13  BANK14  BANK15  BANK16  BANK17  BANK18  BANK19  BANK20  BANK21  BANK22  BANK23  BANK24  BANK25
      Params:         0       0       0       0       0       0       0       0       0       0       0       0       0       0       0       0       0       0       0       0       0       0       0       0       0       0       0
      Locals:         0       0       0       0       0       0       0       0       0       0       0       0       0       0       0       0       0       0       0       0       0       0       0       0       0       0       0
      Temps:          0       0       0       0       0       0       0       0       0       0       0       0       0       0       0       0       0       0       0       0       0       0       0       0       0       0       0
      Totals:         0       0       0       0       0       0       0       0       0       0       0       0       0       0       0       0       0       0       0       0       0       0       0       0       0       0       0
Total ram usage:        0 bytes
 Hardware stack levels used:    1
 Hardware stack levels required when called:   12
 This function calls:
		Nothing
 This function is called by:
		_SYSTEM_Initialize
 This function uses a non-reentrant model


 *************** function _TMR2_Initialize *****************
 Defined at:
		line 64 in file "mcc_generated_files/tmr2.c"
 Parameters:    Size  Location     Type
		None
 Auto vars:     Size  Location     Type
		None
 Return value:  Size  Location     Type
                  1    wreg      void 
 Registers used:
		wreg, status,2, status,0, pclath, cstack
 Tracked objects:
		On entry : 
		On exit  : 
		Unchanged: 
 Data sizes:     COMMON   BANK0   BANK1   BANK2   BANK3   BANK4   BANK5   BANK6   BANK7   BANK8   BANK9  BANK10  BANK11  BANK12  BANK13  BANK14  BANK15  BANK16  BANK17  BANK18  BANK19  BANK20  BANK21  BANK22  BANK23  BANK24  BANK25
      Params:         0       0       0       0       0       0       0       0       0       0       0       0       0       0       0       0       0       0       0       0       0       0       0       0       0       0       0
      Locals:         0       0       0       0       0       0       0       0       0       0       0       0       0       0       0       0       0       0       0       0       0       0       0       0       0       0       0
      Temps:          0       0       0       0       0       0       0       0       0       0       0       0       0       0       0       0       0       0       0       0       0       0       0       0       0       0       0
      Totals:         0       0       0       0       0       0       0       0       0       0       0       0       0       0       0       0       0       0       0       0       0       0       0       0       0       0       0
Total ram usage:        0 bytes
 Hardware stack levels used:    1
 Hardware stack levels required when called:   13
 This function calls:
		_TMR2_SetInterruptHandler
 This function is called by:
		_SYSTEM_Initialize
 This function uses a non-reentrant model


 *************** function _TMR2_SetInterruptHandler *****************
 Defined at:
		line 132 in file "mcc_generated_files/tmr2.c"
 Parameters:    Size  Location     Type
  InterruptHan    2    8[BANK1 ] PTR FTN()void 
		 -> led_indicate(1), TMR2_DefaultInterruptHandler(1), 
 Auto vars:     Size  Location     Type
		None
 Return value:  Size  Location     Type
                  1    wreg      void 
 Registers used:
		wreg
 Tracked objects:
		On entry : 
		On exit  : 
		Unchanged: 
 Data sizes:     COMMON   BANK0   BANK1   BANK2   BANK3   BANK4   BANK5   BANK6   BANK7   BANK8   BANK9  BANK10  BANK11  BANK12  BANK13  BANK14  BANK15  BANK16  BANK17  BANK18  BANK19  BANK20  BANK21  BANK22  BANK23  BANK24  BANK25
      Params:         0       0       2       0       0       0       0       0       0       0       0       0       0       0       0       0       0       0       0       0       0       0       0       0       0       0       0
      Locals:         0       0       0       0       0       0       0       0       0       0       0       0       0       0       0       0       0       0       0       0       0       0       0       0       0       0       0
      Temps:          0       0       0       0       0       0       0       0       0       0       0       0       0       0       0       0       0       0       0       0       0       0       0       0       0       0       0
      Totals:         0       0       2       0       0       0       0       0       0       0       0       0       0       0       0       0       0       0       0       0       0       0       0       0       0       0       0
Total ram usage:        2 bytes
 Hardware stack levels used:    1
 Hardware stack levels required when called:   12
 This function calls:
		Nothing
 This function is called by:
		_TMR2_Initialize
		_main
 This function uses a non-reentrant model


 *************** function _TMR1_Initialize *****************
 Defined at:
		line 64 in file "mcc_generated_files/tmr1.c"
 Parameters:    Size  Location     Type
		None
 Auto vars:     Size  Location     Type
		None
 Return value:  Size  Location     Type
                  1    wreg      void 
 Registers used:
		wreg, status,2, status,0, pclath, cstack
 Tracked objects:
		On entry : 
		On exit  : 
		Unchanged: 
 Data sizes:     COMMON   BANK0   BANK1   BANK2   BANK3   BANK4   BANK5   BANK6   BANK7   BANK8   BANK9  BANK10  BANK11  BANK12  BANK13  BANK14  BANK15  BANK16  BANK17  BANK18  BANK19  BANK20  BANK21  BANK22  BANK23  BANK24  BANK25
      Params:         0       0       0       0       0       0       0       0       0       0       0       0       0       0       0       0       0       0       0       0       0       0       0       0       0       0       0
      Locals:         0       0       0       0       0       0       0       0       0       0       0       0       0       0       0       0       0       0       0       0       0       0       0       0       0       0       0
      Temps:          0       0       0       0       0       0       0       0       0       0       0       0       0       0       0       0       0       0       0       0       0       0       0       0       0       0       0
      Totals:         0       0       0       0       0       0       0       0       0       0       0       0       0       0       0       0       0       0       0       0       0       0       0       0       0       0       0
Total ram usage:        0 bytes
 Hardware stack levels used:    1
 Hardware stack levels required when called:   13
 This function calls:
		_TMR1_SetInterruptHandler
 This function is called by:
		_SYSTEM_Initialize
 This function uses a non-reentrant model


 *************** function _TMR1_SetInterruptHandler *****************
 Defined at:
		line 171 in file "mcc_generated_files/tmr1.c"
 Parameters:    Size  Location     Type
  InterruptHan    2    8[BANK1 ] PTR FTN()void 
		 -> frequency_calculation(1), TMR1_DefaultInterruptHandler(1), 
 Auto vars:     Size  Location     Type
		None
 Return value:  Size  Location     Type
                  1    wreg      void 
 Registers used:
		wreg
 Tracked objects:
		On entry : 
		On exit  : 
		Unchanged: 
 Data sizes:     COMMON   BANK0   BANK1   BANK2   BANK3   BANK4   BANK5   BANK6   BANK7   BANK8   BANK9  BANK10  BANK11  BANK12  BANK13  BANK14  BANK15  BANK16  BANK17  BANK18  BANK19  BANK20  BANK21  BANK22  BANK23  BANK24  BANK25
      Params:         0       0       2       0       0       0       0       0       0       0       0       0       0       0       0       0       0       0       0       0       0       0       0       0       0       0       0
      Locals:         0       0       0       0       0       0       0       0       0       0       0       0       0       0       0       0       0       0       0       0       0       0       0       0       0       0       0
      Temps:          0       0       0       0       0       0       0       0       0       0       0       0       0       0       0       0       0       0       0       0       0       0       0       0       0       0       0
      Totals:         0       0       2       0       0       0       0       0       0       0       0       0       0       0       0       0       0       0       0       0       0       0       0       0       0       0       0
Total ram usage:        2 bytes
 Hardware stack levels used:    1
 Hardware stack levels required when called:   12
 This function calls:
		Nothing
 This function is called by:
		_TMR1_Initialize
		_main
 This function uses a non-reentrant model


 *************** function _TMR0_Initialize *****************
 Defined at:
		line 67 in file "mcc_generated_files/tmr0.c"
 Parameters:    Size  Location     Type
		None
 Auto vars:     Size  Location     Type
		None
 Return value:  Size  Location     Type
                  1    wreg      void 
 Registers used:
		wreg, status,2, status,0, pclath, cstack
 Tracked objects:
		On entry : 
		On exit  : 
		Unchanged: 
 Data sizes:     COMMON   BANK0   BANK1   BANK2   BANK3   BANK4   BANK5   BANK6   BANK7   BANK8   BANK9  BANK10  BANK11  BANK12  BANK13  BANK14  BANK15  BANK16  BANK17  BANK18  BANK19  BANK20  BANK21  BANK22  BANK23  BANK24  BANK25
      Params:         0       0       0       0       0       0       0       0       0       0       0       0       0       0       0       0       0       0       0       0       0       0       0       0       0       0       0
      Locals:         0       0       0       0       0       0       0       0       0       0       0       0       0       0       0       0       0       0       0       0       0       0       0       0       0       0       0
      Temps:          0       0       0       0       0       0       0       0       0       0       0       0       0       0       0       0       0       0       0       0       0       0       0       0       0       0       0
      Totals:         0       0       0       0       0       0       0       0       0       0       0       0       0       0       0       0       0       0       0       0       0       0       0       0       0       0       0
Total ram usage:        0 bytes
 Hardware stack levels used:    1
 Hardware stack levels required when called:   13
 This function calls:
		_TMR0_SetInterruptHandler
 This function is called by:
		_SYSTEM_Initialize
 This function uses a non-reentrant model


 *************** function _TMR0_SetInterruptHandler *****************
 Defined at:
		line 152 in file "mcc_generated_files/tmr0.c"
 Parameters:    Size  Location     Type
  InterruptHan    2    8[BANK1 ] PTR FTN()void 
		 -> TMR0_DefaultInterruptHandler(1), 
 Auto vars:     Size  Location     Type
		None
 Return value:  Size  Location     Type
                  1    wreg      void 
 Registers used:
		wreg
 Tracked objects:
		On entry : 
		On exit  : 
		Unchanged: 
 Data sizes:     COMMON   BANK0   BANK1   BANK2   BANK3   BANK4   BANK5   BANK6   BANK7   BANK8   BANK9  BANK10  BANK11  BANK12  BANK13  BANK14  BANK15  BANK16  BANK17  BANK18  BANK19  BANK20  BANK21  BANK22  BANK23  BANK24  BANK25
      Params:         0       0       2       0       0       0       0       0       0       0       0       0       0       0       0       0       0       0       0       0       0       0       0       0       0       0       0
      Locals:         0       0       0       0       0       0       0       0       0       0       0       0       0       0       0       0       0       0       0       0       0       0       0       0       0       0       0
      Temps:          0       0       0       0       0       0       0       0       0       0       0       0       0       0       0       0       0       0       0       0       0       0       0       0       0       0       0
      Totals:         0       0       2       0       0       0       0       0       0       0       0       0       0       0       0       0       0       0       0       0       0       0       0       0       0       0       0
Total ram usage:        2 bytes
 Hardware stack levels used:    1
 Hardware stack levels required when called:   12
 This function calls:
		Nothing
 This function is called by:
		_TMR0_Initialize
 This function uses a non-reentrant model


 *************** function _PWM6_Initialize *****************
 Defined at:
		line 58 in file "mcc_generated_files/pwm6.c"
 Parameters:    Size  Location     Type
		None
 Auto vars:     Size  Location     Type
		None
 Return value:  Size  Location     Type
                  1    wreg      void 
 Registers used:
		wreg, status,2, status,0
 Tracked objects:
		On entry : 
		On exit  : 
		Unchanged: 
 Data sizes:     COMMON   BANK0   BANK1   BANK2   BANK3   BANK4   BANK5   BANK6   BANK7   BANK8   BANK9  BANK10  BANK11  BANK12  BANK13  BANK14  BANK15  BANK16  BANK17  BANK18  BANK19  BANK20  BANK21  BANK22  BANK23  BANK24  BANK25
      Params:         0       0       0       0       0       0       0       0       0       0       0       0       0       0       0       0       0       0       0       0       0       0       0       0       0       0       0
      Locals:         0       0       0       0       0       0       0       0       0       0       0       0       0       0       0       0       0       0       0       0       0       0       0       0       0       0       0
      Temps:          0       0       0       0       0       0       0       0       0       0       0       0       0       0       0       0       0       0       0       0       0       0       0       0       0       0       0
      Totals:         0       0       0       0       0       0       0       0       0       0       0       0       0       0       0       0       0       0       0       0       0       0       0       0       0       0       0
Total ram usage:        0 bytes
 Hardware stack levels used:    1
 Hardware stack levels required when called:   12
 This function calls:
		Nothing
 This function is called by:
		_SYSTEM_Initialize
 This function uses a non-reentrant model


 *************** function _PWM5_Initialize *****************
 Defined at:
		line 58 in file "mcc_generated_files/pwm5.c"
 Parameters:    Size  Location     Type
		None
 Auto vars:     Size  Location     Type
		None
 Return value:  Size  Location     Type
                  1    wreg      void 
 Registers used:
		wreg, status,2, status,0
 Tracked objects:
		On entry : 
		On exit  : 
		Unchanged: 
 Data sizes:     COMMON   BANK0   BANK1   BANK2   BANK3   BANK4   BANK5   BANK6   BANK7   BANK8   BANK9  BANK10  BANK11  BANK12  BANK13  BANK14  BANK15  BANK16  BANK17  BANK18  BANK19  BANK20  BANK21  BANK22  BANK23  BANK24  BANK25
      Params:         0       0       0       0       0       0       0       0       0       0       0       0       0       0       0       0       0       0       0       0       0       0       0       0       0       0       0
      Locals:         0       0       0       0       0       0       0       0       0       0       0       0       0       0       0       0       0       0       0       0       0       0       0       0       0       0       0
      Temps:          0       0       0       0       0       0       0       0       0       0       0       0       0       0       0       0       0       0       0       0       0       0       0       0       0       0       0
      Totals:         0       0       0       0       0       0       0       0       0       0       0       0       0       0       0       0       0       0       0       0       0       0       0       0       0       0       0
Total ram usage:        0 bytes
 Hardware stack levels used:    1
 Hardware stack levels required when called:   12
 This function calls:
		Nothing
 This function is called by:
		_SYSTEM_Initialize
 This function uses a non-reentrant model


 *************** function _PMD_Initialize *****************
 Defined at:
		line 89 in file "mcc_generated_files/mcc.c"
 Parameters:    Size  Location     Type
		None
 Auto vars:     Size  Location     Type
		None
 Return value:  Size  Location     Type
                  1    wreg      void 
 Registers used:
		wreg
 Tracked objects:
		On entry : 
		On exit  : 
		Unchanged: 
 Data sizes:     COMMON   BANK0   BANK1   BANK2   BANK3   BANK4   BANK5   BANK6   BANK7   BANK8   BANK9  BANK10  BANK11  BANK12  BANK13  BANK14  BANK15  BANK16  BANK17  BANK18  BANK19  BANK20  BANK21  BANK22  BANK23  BANK24  BANK25
      Params:         0       0       0       0       0       0       0       0       0       0       0       0       0       0       0       0       0       0       0       0       0       0       0       0       0       0       0
      Locals:         0       0       0       0       0       0       0       0       0       0       0       0       0       0       0       0       0       0       0       0       0       0       0       0       0       0       0
      Temps:          0       0       0       0       0       0       0       0       0       0       0       0       0       0       0       0       0       0       0       0       0       0       0       0       0       0       0
      Totals:         0       0       0       0       0       0       0       0       0       0       0       0       0       0       0       0       0       0       0       0       0       0       0       0       0       0       0
Total ram usage:        0 bytes
 Hardware stack levels used:    1
 Hardware stack levels required when called:   12
 This function calls:
		Nothing
 This function is called by:
		_SYSTEM_Initialize
 This function uses a non-reentrant model


 *************** function _PIN_MANAGER_Initialize *****************
 Defined at:
		line 55 in file "mcc_generated_files/pin_manager.c"
 Parameters:    Size  Location     Type
		None
 Auto vars:     Size  Location     Type
		None
 Return value:  Size  Location     Type
                  1    wreg      void 
 Registers used:
		wreg, status,2
 Tracked objects:
		On entry : 
		On exit  : 
		Unchanged: 
 Data sizes:     COMMON   BANK0   BANK1   BANK2   BANK3   BANK4   BANK5   BANK6   BANK7   BANK8   BANK9  BANK10  BANK11  BANK12  BANK13  BANK14  BANK15  BANK16  BANK17  BANK18  BANK19  BANK20  BANK21  BANK22  BANK23  BANK24  BANK25
      Params:         0       0       0       0       0       0       0       0       0       0       0       0       0       0       0       0       0       0       0       0       0       0       0       0       0       0       0
      Locals:         0       0       0       0       0       0       0       0       0       0       0       0       0       0       0       0       0       0       0       0       0       0       0       0       0       0       0
      Temps:          0       0       0       0       0       0       0       0       0       0       0       0       0       0       0       0       0       0       0       0       0       0       0       0       0       0       0
      Totals:         0       0       0       0       0       0       0       0       0       0       0       0       0       0       0       0       0       0       0       0       0       0       0       0       0       0       0
Total ram usage:        0 bytes
 Hardware stack levels used:    1
 Hardware stack levels required when called:   12
 This function calls:
		Nothing
 This function is called by:
		_SYSTEM_Initialize
 This function uses a non-reentrant model


 *************** function _OSCILLATOR_Initialize *****************
 Defined at:
		line 69 in file "mcc_generated_files/mcc.c"
 Parameters:    Size  Location     Type
		None
 Auto vars:     Size  Location     Type
		None
 Return value:  Size  Location     Type
                  1    wreg      void 
 Registers used:
		wreg, status,2
 Tracked objects:
		On entry : 
		On exit  : 
		Unchanged: 
 Data sizes:     COMMON   BANK0   BANK1   BANK2   BANK3   BANK4   BANK5   BANK6   BANK7   BANK8   BANK9  BANK10  BANK11  BANK12  BANK13  BANK14  BANK15  BANK16  BANK17  BANK18  BANK19  BANK20  BANK21  BANK22  BANK23  BANK24  BANK25
      Params:         0       0       0       0       0       0       0       0       0       0       0       0       0       0       0       0       0       0       0       0       0       0       0       0       0       0       0
      Locals:         0       0       0       0       0       0       0       0       0       0       0       0       0       0       0       0       0       0       0       0       0       0       0       0       0       0       0
      Temps:          0       0       0       0       0       0       0       0       0       0       0       0       0       0       0       0       0       0       0       0       0       0       0       0       0       0       0
      Totals:         0       0       0       0       0       0       0       0       0       0       0       0       0       0       0       0       0       0       0       0       0       0       0       0       0       0       0
Total ram usage:        0 bytes
 Hardware stack levels used:    1
 Hardware stack levels required when called:   12
 This function calls:
		Nothing
 This function is called by:
		_SYSTEM_Initialize
 This function uses a non-reentrant model


 *************** function _EUSART_Initialize *****************
 Defined at:
		line 65 in file "mcc_generated_files/eusart.c"
 Parameters:    Size  Location     Type
		None
 Auto vars:     Size  Location     Type
		None
 Return value:  Size  Location     Type
                  1    wreg      void 
 Registers used:
		wreg, status,2, status,0, pclath, cstack
 Tracked objects:
		On entry : 
		On exit  : 
		Unchanged: 
 Data sizes:     COMMON   BANK0   BANK1   BANK2   BANK3   BANK4   BANK5   BANK6   BANK7   BANK8   BANK9  BANK10  BANK11  BANK12  BANK13  BANK14  BANK15  BANK16  BANK17  BANK18  BANK19  BANK20  BANK21  BANK22  BANK23  BANK24  BANK25
      Params:         0       0       0       0       0       0       0       0       0       0       0       0       0       0       0       0       0       0       0       0       0       0       0       0       0       0       0
      Locals:         0       0       0       0       0       0       0       0       0       0       0       0       0       0       0       0       0       0       0       0       0       0       0       0       0       0       0
      Temps:          0       0       0       0       0       0       0       0       0       0       0       0       0       0       0       0       0       0       0       0       0       0       0       0       0       0       0
      Totals:         0       0       0       0       0       0       0       0       0       0       0       0       0       0       0       0       0       0       0       0       0       0       0       0       0       0       0
Total ram usage:        0 bytes
 Hardware stack levels used:    1
 Hardware stack levels required when called:   13
 This function calls:
		_EUSART_SetErrorHandler
		_EUSART_SetFramingErrorHandler
		_EUSART_SetOverrunErrorHandler
 This function is called by:
		_SYSTEM_Initialize
 This function uses a non-reentrant model


 *************** function _EUSART_SetOverrunErrorHandler *****************
 Defined at:
		line 176 in file "mcc_generated_files/eusart.c"
 Parameters:    Size  Location     Type
  interruptHan    2    8[BANK1 ] PTR FTN()void 
		 -> EUSART_DefaultOverrunErrorHandler(1), 
 Auto vars:     Size  Location     Type
		None
 Return value:  Size  Location     Type
                  1    wreg      void 
 Registers used:
		wreg
 Tracked objects:
		On entry : 
		On exit  : 
		Unchanged: 
 Data sizes:     COMMON   BANK0   BANK1   BANK2   BANK3   BANK4   BANK5   BANK6   BANK7   BANK8   BANK9  BANK10  BANK11  BANK12  BANK13  BANK14  BANK15  BANK16  BANK17  BANK18  BANK19  BANK20  BANK21  BANK22  BANK23  BANK24  BANK25
      Params:         0       0       2       0       0       0       0       0       0       0       0       0       0       0       0       0       0       0       0       0       0       0       0       0       0       0       0
      Locals:         0       0       0       0       0       0       0       0       0       0       0       0       0       0       0       0       0       0       0       0       0       0       0       0       0       0       0
      Temps:          0       0       0       0       0       0       0       0       0       0       0       0       0       0       0       0       0       0       0       0       0       0       0       0       0       0       0
      Totals:         0       0       2       0       0       0       0       0       0       0       0       0       0       0       0       0       0       0       0       0       0       0       0       0       0       0       0
Total ram usage:        2 bytes
 Hardware stack levels used:    1
 Hardware stack levels required when called:   12
 This function calls:
		Nothing
 This function is called by:
		_EUSART_Initialize
 This function uses a non-reentrant model


 *************** function _EUSART_SetFramingErrorHandler *****************
 Defined at:
		line 172 in file "mcc_generated_files/eusart.c"
 Parameters:    Size  Location     Type
  interruptHan    2    8[BANK1 ] PTR FTN()void 
		 -> EUSART_DefaultFramingErrorHandler(1), 
 Auto vars:     Size  Location     Type
		None
 Return value:  Size  Location     Type
                  1    wreg      void 
 Registers used:
		wreg
 Tracked objects:
		On entry : 
		On exit  : 
		Unchanged: 
 Data sizes:     COMMON   BANK0   BANK1   BANK2   BANK3   BANK4   BANK5   BANK6   BANK7   BANK8   BANK9  BANK10  BANK11  BANK12  BANK13  BANK14  BANK15  BANK16  BANK17  BANK18  BANK19  BANK20  BANK21  BANK22  BANK23  BANK24  BANK25
      Params:         0       0       2       0       0       0       0       0       0       0       0       0       0       0       0       0       0       0       0       0       0       0       0       0       0       0       0
      Locals:         0       0       0       0       0       0       0       0       0       0       0       0       0       0       0       0       0       0       0       0       0       0       0       0       0       0       0
      Temps:          0       0       0       0       0       0       0       0       0       0       0       0       0       0       0       0       0       0       0       0       0       0       0       0       0       0       0
      Totals:         0       0       2       0       0       0       0       0       0       0       0       0       0       0       0       0       0       0       0       0       0       0       0       0       0       0       0
Total ram usage:        2 bytes
 Hardware stack levels used:    1
 Hardware stack levels required when called:   12
 This function calls:
		Nothing
 This function is called by:
		_EUSART_Initialize
 This function uses a non-reentrant model


 *************** function _EUSART_SetErrorHandler *****************
 Defined at:
		line 180 in file "mcc_generated_files/eusart.c"
 Parameters:    Size  Location     Type
  interruptHan    2    8[BANK1 ] PTR FTN()void 
		 -> EUSART_DefaultErrorHandler(1), 
 Auto vars:     Size  Location     Type
		None
 Return value:  Size  Location     Type
                  1    wreg      void 
 Registers used:
		wreg
 Tracked objects:
		On entry : 
		On exit  : 
		Unchanged: 
 Data sizes:     COMMON   BANK0   BANK1   BANK2   BANK3   BANK4   BANK5   BANK6   BANK7   BANK8   BANK9  BANK10  BANK11  BANK12  BANK13  BANK14  BANK15  BANK16  BANK17  BANK18  BANK19  BANK20  BANK21  BANK22  BANK23  BANK24  BANK25
      Params:         0       0       2       0       0       0       0       0       0       0       0       0       0       0       0       0       0       0       0       0       0       0       0       0       0       0       0
      Locals:         0       0       0       0       0       0       0       0       0       0       0       0       0       0       0       0       0       0       0       0       0       0       0       0       0       0       0
      Temps:          0       0       0       0       0       0       0       0       0       0       0       0       0       0       0       0       0       0       0       0       0       0       0       0       0       0       0
      Totals:         0       0       2       0       0       0       0       0       0       0       0       0       0       0       0       0       0       0       0       0       0       0       0       0       0       0       0
Total ram usage:        2 bytes
 Hardware stack levels used:    1
 Hardware stack levels required when called:   12
 This function calls:
		Nothing
 This function is called by:
		_EUSART_Initialize
 This function uses a non-reentrant model


 *************** function _ADC_Initialize *****************
 Defined at:
		line 67 in file "mcc_generated_files/adc.c"
 Parameters:    Size  Location     Type
		None
 Auto vars:     Size  Location     Type
		None
 Return value:  Size  Location     Type
                  1    wreg      void 
 Registers used:
		wreg, status,2
 Tracked objects:
		On entry : 
		On exit  : 
		Unchanged: 
 Data sizes:     COMMON   BANK0   BANK1   BANK2   BANK3   BANK4   BANK5   BANK6   BANK7   BANK8   BANK9  BANK10  BANK11  BANK12  BANK13  BANK14  BANK15  BANK16  BANK17  BANK18  BANK19  BANK20  BANK21  BANK22  BANK23  BANK24  BANK25
      Params:         0       0       0       0       0       0       0       0       0       0       0       0       0       0       0       0       0       0       0       0       0       0       0       0       0       0       0
      Locals:         0       0       0       0       0       0       0       0       0       0       0       0       0       0       0       0       0       0       0       0       0       0       0       0       0       0       0
      Temps:          0       0       0       0       0       0       0       0       0       0       0       0       0       0       0       0       0       0       0       0       0       0       0       0       0       0       0
      Totals:         0       0       0       0       0       0       0       0       0       0       0       0       0       0       0       0       0       0       0       0       0       0       0       0       0       0       0
Total ram usage:        0 bytes
 Hardware stack levels used:    1
 Hardware stack levels required when called:   12
 This function calls:
		Nothing
 This function is called by:
		_SYSTEM_Initialize
 This function uses a non-reentrant model


 *************** function _FLASH_ReadWord *****************
 Defined at:
		line 58 in file "mcc_generated_files/memory.c"
 Parameters:    Size  Location     Type
  flashAddr       2    8[BANK1 ] unsigned short 
 Auto vars:     Size  Location     Type
  GIEBitValue     1   10[BANK1 ] unsigned char 
 Return value:  Size  Location     Type
                  2    8[BANK1 ] unsigned short 
 Registers used:
		wreg, status,2, status,0
 Tracked objects:
		On entry : 
		On exit  : 
		Unchanged: 
 Data sizes:     COMMON   BANK0   BANK1   BANK2   BANK3   BANK4   BANK5   BANK6   BANK7   BANK8   BANK9  BANK10  BANK11  BANK12  BANK13  BANK14  BANK15  BANK16  BANK17  BANK18  BANK19  BANK20  BANK21  BANK22  BANK23  BANK24  BANK25
      Params:         0       0       2       0       0       0       0       0       0       0       0       0       0       0       0       0       0       0       0       0       0       0       0       0       0       0       0
      Locals:         0       0       1       0       0       0       0       0       0       0       0       0       0       0       0       0       0       0       0       0       0       0       0       0       0       0       0
      Temps:          0       0       0       0       0       0       0       0       0       0       0       0       0       0       0       0       0       0       0       0       0       0       0       0       0       0       0
      Totals:         0       0       3       0       0       0       0       0       0       0       0       0       0       0       0       0       0       0       0       0       0       0       0       0       0       0       0
Total ram usage:        3 bytes
 Hardware stack levels used:    1
 Hardware stack levels required when called:   12
 This function calls:
		Nothing
 This function is called by:
		_main
		_FLASH_WriteWord
 This function uses a non-reentrant model


 *************** function _INTERRUPT_InterruptManager *****************
 Defined at:
		line 52 in file "mcc_generated_files/interrupt_manager.c"
 Parameters:    Size  Location     Type
		None
 Auto vars:     Size  Location     Type
		None
 Return value:  Size  Location     Type
                  1    wreg      void 
 Registers used:
		wreg, fsr0l, fsr0h, fsr1l, fsr1h, status,2, status,0, pclath, cstack
 Tracked objects:
		On entry : 
		On exit  : 
		Unchanged: 
 Data sizes:     COMMON   BANK0   BANK1   BANK2   BANK3   BANK4   BANK5   BANK6   BANK7   BANK8   BANK9  BANK10  BANK11  BANK12  BANK13  BANK14  BANK15  BANK16  BANK17  BANK18  BANK19  BANK20  BANK21  BANK22  BANK23  BANK24  BANK25
      Params:         0       0       0       0       0       0       0       0       0       0       0       0       0       0       0       0       0       0       0       0       0       0       0       0       0       0       0
      Locals:         0       0       0       0       0       0       0       0       0       0       0       0       0       0       0       0       0       0       0       0       0       0       0       0       0       0       0
      Temps:          0       0       0       0       0       0       0       0       0       0       0       0       0       0       0       0       0       0       0       0       0       0       0       0       0       0       0
      Totals:         0       0       0       0       0       0       0       0       0       0       0       0       0       0       0       0       0       0       0       0       0       0       0       0       0       0       0
Total ram usage:        0 bytes
 Hardware stack levels used:    1
 Hardware stack levels required when called:   11
 This function calls:
		_TMR0_ISR
		_TMR1_ISR
		_TMR2_ISR
 This function is called by:
		Interrupt level 1
 This function uses a non-reentrant model


 *************** function _TMR2_ISR *****************
 Defined at:
		line 119 in file "mcc_generated_files/tmr2.c"
 Parameters:    Size  Location     Type
		None
 Auto vars:     Size  Location     Type
		None
 Return value:  Size  Location     Type
                  1    wreg      void 
 Registers used:
		wreg, fsr0l, fsr0h, fsr1l, fsr1h, status,2, status,0, pclath, cstack
 Tracked objects:
		On entry : 
		On exit  : 
		Unchanged: 
 Data sizes:     COMMON   BANK0   BANK1   BANK2   BANK3   BANK4   BANK5   BANK6   BANK7   BANK8   BANK9  BANK10  BANK11  BANK12  BANK13  BANK14  BANK15  BANK16  BANK17  BANK18  BANK19  BANK20  BANK21  BANK22  BANK23  BANK24  BANK25
      Params:         0       0       0       0       0       0       0       0       0       0       0       0       0       0       0       0       0       0       0       0       0       0       0       0       0       0       0
      Locals:         0       0       0       0       0       0       0       0       0       0       0       0       0       0       0       0       0       0       0       0       0       0       0       0       0       0       0
      Temps:          0       0       0       0       0       0       0       0       0       0       0       0       0       0       0       0       0       0       0       0       0       0       0       0       0       0       0
      Totals:         0       0       0       0       0       0       0       0       0       0       0       0       0       0       0       0       0       0       0       0       0       0       0       0       0       0       0
Total ram usage:        0 bytes
 Hardware stack levels used:    1
 Hardware stack levels required when called:    6
 This function calls:
		Absolute function
		_TMR2_DefaultInterruptHandler
		_led_indicate
 This function is called by:
		_INTERRUPT_InterruptManager
 This function uses a non-reentrant model


 *************** function _TMR2_DefaultInterruptHandler *****************
 Defined at:
		line 136 in file "mcc_generated_files/tmr2.c"
 Parameters:    Size  Location     Type
		None
 Auto vars:     Size  Location     Type
		None
 Return value:  Size  Location     Type
                  1    wreg      void 
 Registers used:
		None
 Tracked objects:
		On entry : 
		On exit  : 
		Unchanged: 
 Data sizes:     COMMON   BANK0   BANK1   BANK2   BANK3   BANK4   BANK5   BANK6   BANK7   BANK8   BANK9  BANK10  BANK11  BANK12  BANK13  BANK14  BANK15  BANK16  BANK17  BANK18  BANK19  BANK20  BANK21  BANK22  BANK23  BANK24  BANK25
      Params:         0       0       0       0       0       0       0       0       0       0       0       0       0       0       0       0       0       0       0       0       0       0       0       0       0       0       0
      Locals:         0       0       0       0       0       0       0       0       0       0       0       0       0       0       0       0       0       0       0       0       0       0       0       0       0       0       0
      Temps:          0       0       0       0       0       0       0       0       0       0       0       0       0       0       0       0       0       0       0       0       0       0       0       0       0       0       0
      Totals:         0       0       0       0       0       0       0       0       0       0       0       0       0       0       0       0       0       0       0       0       0       0       0       0       0       0       0
Total ram usage:        0 bytes
 Hardware stack levels used:    1
 This function calls:
		Nothing
 This function is called by:
		_TMR2_Initialize
		_TMR2_ISR
 This function uses a non-reentrant model


 *************** function _led_indicate *****************
 Defined at:
		line 100 in file "led.c"
 Parameters:    Size  Location     Type
		None
 Auto vars:     Size  Location     Type
		None
 Return value:  Size  Location     Type
                  1    wreg      void 
 Registers used:
		wreg, fsr0l, fsr0h, fsr1l, fsr1h, status,2, status,0, pclath, cstack
 Tracked objects:
		On entry : 
		On exit  : 
		Unchanged: 
 Data sizes:     COMMON   BANK0   BANK1   BANK2   BANK3   BANK4   BANK5   BANK6   BANK7   BANK8   BANK9  BANK10  BANK11  BANK12  BANK13  BANK14  BANK15  BANK16  BANK17  BANK18  BANK19  BANK20  BANK21  BANK22  BANK23  BANK24  BANK25
      Params:         0       0       0       0       0       0       0       0       0       0       0       0       0       0       0       0       0       0       0       0       0       0       0       0       0       0       0
      Locals:         0       0       0       0       0       0       0       0       0       0       0       0       0       0       0       0       0       0       0       0       0       0       0       0       0       0       0
      Temps:          0       2       0       0       0       0       0       0       0       0       0       0       0       0       0       0       0       0       0       0       0       0       0       0       0       0       0
      Totals:         0       2       0       0       0       0       0       0       0       0       0       0       0       0       0       0       0       0       0       0       0       0       0       0       0       0       0
Total ram usage:        2 bytes
 Hardware stack levels used:    1
 Hardware stack levels required when called:    5
 This function calls:
		_led_off
		_led_on
		_led_toggle
		i1_led_set_mode
		i1_puts
 This function is called by:
		_main
		_TMR2_ISR
 This function uses a non-reentrant model


 *************** function i1_led_set_mode *****************
 Defined at:
		line 34 in file "led.c"
 Parameters:    Size  Location     Type
  newmode         1    wreg     enum E6821
 Auto vars:     Size  Location     Type
  newmode         1    1[COMMON] enum E6821
 Return value:  Size  Location     Type
                  1    wreg      void 
 Registers used:
		wreg
 Tracked objects:
		On entry : 
		On exit  : 
		Unchanged: 
 Data sizes:     COMMON   BANK0   BANK1   BANK2   BANK3   BANK4   BANK5   BANK6   BANK7   BANK8   BANK9  BANK10  BANK11  BANK12  BANK13  BANK14  BANK15  BANK16  BANK17  BANK18  BANK19  BANK20  BANK21  BANK22  BANK23  BANK24  BANK25
      Params:         0       0       0       0       0       0       0       0       0       0       0       0       0       0       0       0       0       0       0       0       0       0       0       0       0       0       0
      Locals:         1       0       0       0       0       0       0       0       0       0       0       0       0       0       0       0       0       0       0       0       0       0       0       0       0       0       0
      Temps:          1       0       0       0       0       0       0       0       0       0       0       0       0       0       0       0       0       0       0       0       0       0       0       0       0       0       0
      Totals:         2       0       0       0       0       0       0       0       0       0       0       0       0       0       0       0       0       0       0       0       0       0       0       0       0       0       0
Total ram usage:        2 bytes
 Hardware stack levels used:    1
 This function calls:
		Nothing
 This function is called by:
		_led_indicate
 This function uses a non-reentrant model


 *************** function _led_toggle *****************
 Defined at:
		line 71 in file "led.c"
 Parameters:    Size  Location     Type
		None
 Auto vars:     Size  Location     Type
		None
 Return value:  Size  Location     Type
                  1    wreg      void 
 Registers used:
		wreg, status,2, status,0
 Tracked objects:
		On entry : 
		On exit  : 
		Unchanged: 
 Data sizes:     COMMON   BANK0   BANK1   BANK2   BANK3   BANK4   BANK5   BANK6   BANK7   BANK8   BANK9  BANK10  BANK11  BANK12  BANK13  BANK14  BANK15  BANK16  BANK17  BANK18  BANK19  BANK20  BANK21  BANK22  BANK23  BANK24  BANK25
      Params:         0       0       0       0       0       0       0       0       0       0       0       0       0       0       0       0       0       0       0       0       0       0       0       0       0       0       0
      Locals:         0       0       0       0       0       0       0       0       0       0       0       0       0       0       0       0       0       0       0       0       0       0       0       0       0       0       0
      Temps:          1       0       0       0       0       0       0       0       0       0       0       0       0       0       0       0       0       0       0       0       0       0       0       0       0       0       0
      Totals:         1       0       0       0       0       0       0       0       0       0       0       0       0       0       0       0       0       0       0       0       0       0       0       0       0       0       0
Total ram usage:        1 bytes
 Hardware stack levels used:    1
 This function calls:
		Nothing
 This function is called by:
		_led_indicate
 This function uses a non-reentrant model


 *************** function _led_on *****************
 Defined at:
		line 59 in file "led.c"
 Parameters:    Size  Location     Type
		None
 Auto vars:     Size  Location     Type
		None
 Return value:  Size  Location     Type
                  1    wreg      void 
 Registers used:
		None
 Tracked objects:
		On entry : 
		On exit  : 
		Unchanged: 
 Data sizes:     COMMON   BANK0   BANK1   BANK2   BANK3   BANK4   BANK5   BANK6   BANK7   BANK8   BANK9  BANK10  BANK11  BANK12  BANK13  BANK14  BANK15  BANK16  BANK17  BANK18  BANK19  BANK20  BANK21  BANK22  BANK23  BANK24  BANK25
      Params:         0       0       0       0       0       0       0       0       0       0       0       0       0       0       0       0       0       0       0       0       0       0       0       0       0       0       0
      Locals:         0       0       0       0       0       0       0       0       0       0       0       0       0       0       0       0       0       0       0       0       0       0       0       0       0       0       0
      Temps:          0       0       0       0       0       0       0       0       0       0       0       0       0       0       0       0       0       0       0       0       0       0       0       0       0       0       0
      Totals:         0       0       0       0       0       0       0       0       0       0       0       0       0       0       0       0       0       0       0       0       0       0       0       0       0       0       0
Total ram usage:        0 bytes
 Hardware stack levels used:    1
 This function calls:
		Nothing
 This function is called by:
		_led_indicate
 This function uses a non-reentrant model


 *************** function _led_off *****************
 Defined at:
		line 65 in file "led.c"
 Parameters:    Size  Location     Type
		None
 Auto vars:     Size  Location     Type
		None
 Return value:  Size  Location     Type
                  1    wreg      void 
 Registers used:
		status,2
 Tracked objects:
		On entry : 
		On exit  : 
		Unchanged: 
 Data sizes:     COMMON   BANK0   BANK1   BANK2   BANK3   BANK4   BANK5   BANK6   BANK7   BANK8   BANK9  BANK10  BANK11  BANK12  BANK13  BANK14  BANK15  BANK16  BANK17  BANK18  BANK19  BANK20  BANK21  BANK22  BANK23  BANK24  BANK25
      Params:         0       0       0       0       0       0       0       0       0       0       0       0       0       0       0       0       0       0       0       0       0       0       0       0       0       0       0
      Locals:         0       0       0       0       0       0       0       0       0       0       0       0       0       0       0       0       0       0       0       0       0       0       0       0       0       0       0
      Temps:          0       0       0       0       0       0       0       0       0       0       0       0       0       0       0       0       0       0       0       0       0       0       0       0       0       0       0
      Totals:         0       0       0       0       0       0       0       0       0       0       0       0       0       0       0       0       0       0       0       0       0       0       0       0       0       0       0
Total ram usage:        0 bytes
 Hardware stack levels used:    1
 This function calls:
		Nothing
 This function is called by:
		_led_indicate
 This function uses a non-reentrant model


 *************** function _TMR1_ISR *****************
 Defined at:
		line 157 in file "mcc_generated_files/tmr1.c"
 Parameters:    Size  Location     Type
		None
 Auto vars:     Size  Location     Type
		None
 Return value:  Size  Location     Type
                  1    wreg      void 
 Registers used:
		wreg, fsr0l, fsr0h, fsr1l, fsr1h, status,2, status,0, pclath, cstack
 Tracked objects:
		On entry : 
		On exit  : 
		Unchanged: 
 Data sizes:     COMMON   BANK0   BANK1   BANK2   BANK3   BANK4   BANK5   BANK6   BANK7   BANK8   BANK9  BANK10  BANK11  BANK12  BANK13  BANK14  BANK15  BANK16  BANK17  BANK18  BANK19  BANK20  BANK21  BANK22  BANK23  BANK24  BANK25
      Params:         0       0       0       0       0       0       0       0       0       0       0       0       0       0       0       0       0       0       0       0       0       0       0       0       0       0       0
      Locals:         0       0       0       0       0       0       0       0       0       0       0       0       0       0       0       0       0       0       0       0       0       0       0       0       0       0       0
      Temps:          0       0       0       0       0       0       0       0       0       0       0       0       0       0       0       0       0       0       0       0       0       0       0       0       0       0       0
      Totals:         0       0       0       0       0       0       0       0       0       0       0       0       0       0       0       0       0       0       0       0       0       0       0       0       0       0       0
Total ram usage:        0 bytes
 Hardware stack levels used:    1
 Hardware stack levels required when called:   10
 This function calls:
		Absolute function
		_TMR1_DefaultInterruptHandler
		_TMR1_WriteTimer
		_frequency_calculation
 This function is called by:
		_INTERRUPT_InterruptManager
 This function uses a non-reentrant model


 *************** function _TMR1_DefaultInterruptHandler *****************
 Defined at:
		line 175 in file "mcc_generated_files/tmr1.c"
 Parameters:    Size  Location     Type
		None
 Auto vars:     Size  Location     Type
		None
 Return value:  Size  Location     Type
                  1    wreg      void 
 Registers used:
		None
 Tracked objects:
		On entry : 
		On exit  : 
		Unchanged: 
 Data sizes:     COMMON   BANK0   BANK1   BANK2   BANK3   BANK4   BANK5   BANK6   BANK7   BANK8   BANK9  BANK10  BANK11  BANK12  BANK13  BANK14  BANK15  BANK16  BANK17  BANK18  BANK19  BANK20  BANK21  BANK22  BANK23  BANK24  BANK25
      Params:         0       0       0       0       0       0       0       0       0       0       0       0       0       0       0       0       0       0       0       0       0       0       0       0       0       0       0
      Locals:         0       0       0       0       0       0       0       0       0       0       0       0       0       0       0       0       0       0       0       0       0       0       0       0       0       0       0
      Temps:          0       0       0       0       0       0       0       0       0       0       0       0       0       0       0       0       0       0       0       0       0       0       0       0       0       0       0
      Totals:         0       0       0       0       0       0       0       0       0       0       0       0       0       0       0       0       0       0       0       0       0       0       0       0       0       0       0
Total ram usage:        0 bytes
 Hardware stack levels used:    1
 This function calls:
		Nothing
 This function is called by:
		_TMR1_Initialize
		_TMR1_ISR
 This function uses a non-reentrant model


 *************** function _frequency_calculation *****************
 Defined at:
		line 92 in file "spd.c"
 Parameters:    Size  Location     Type
		None
 Auto vars:     Size  Location     Type
		None
 Return value:  Size  Location     Type
                  1    wreg      void 
 Registers used:
		wreg, fsr0l, fsr0h, fsr1l, fsr1h, status,2, status,0, pclath, cstack
 Tracked objects:
		On entry : 
		On exit  : 
		Unchanged: 
 Data sizes:     COMMON   BANK0   BANK1   BANK2   BANK3   BANK4   BANK5   BANK6   BANK7   BANK8   BANK9  BANK10  BANK11  BANK12  BANK13  BANK14  BANK15  BANK16  BANK17  BANK18  BANK19  BANK20  BANK21  BANK22  BANK23  BANK24  BANK25
      Params:         0       0       0       0       0       0       0       0       0       0       0       0       0       0       0       0       0       0       0       0       0       0       0       0       0       0       0
      Locals:         0       0       0       0       0       0       0       0       0       0       0       0       0       0       0       0       0       0       0       0       0       0       0       0       0       0       0
      Temps:          0       0       4       0       0       0       0       0       0       0       0       0       0       0       0       0       0       0       0       0       0       0       0       0       0       0       0
      Totals:         0       0       4       0       0       0       0       0       0       0       0       0       0       0       0       0       0       0       0       0       0       0       0       0       0       0       0
Total ram usage:        4 bytes
 Hardware stack levels used:    1
 Hardware stack levels required when called:    9
 This function calls:
		_TMR0_Reload
		i1_PWM6_LoadDutyValue
		i1_TMR6_LoadPeriodRegister
		i1___flmul
		i1___fltol
		i1___xxtofl
		i1_is_moving
		i1_printf
 This function is called by:
		_main
		_TMR1_ISR
 This function uses a non-reentrant model


 *************** function i1_printf *****************
 Defined at:
		line 5 in file "/opt/microchip/xc8/v2.31/pic/sources/c99/common/printf.c"
 Parameters:    Size  Location     Type
  fmt             2   72[BANK0 ] PTR const unsigned char 
		 -> STR_12(12), STR_11(13), STR_9(29), STR_2(28), 
 Auto vars:     Size  Location     Type
  ap              2    2[BANK1 ] PTR void [1]
		 -> ?i1_printf(2), ?_printf(2), 
  ret             2    0        int 
 Return value:  Size  Location     Type
                  2   72[BANK0 ] int 
 Registers used:
		wreg, fsr0l, fsr0h, fsr1l, fsr1h, status,2, status,0, pclath, cstack
 Tracked objects:
		On entry : 
		On exit  : 
		Unchanged: 
 Data sizes:     COMMON   BANK0   BANK1   BANK2   BANK3   BANK4   BANK5   BANK6   BANK7   BANK8   BANK9  BANK10  BANK11  BANK12  BANK13  BANK14  BANK15  BANK16  BANK17  BANK18  BANK19  BANK20  BANK21  BANK22  BANK23  BANK24  BANK25
      Params:         0       6       0       0       0       0       0       0       0       0       0       0       0       0       0       0       0       0       0       0       0       0       0       0       0       0       0
      Locals:         0       0       4       0       0       0       0       0       0       0       0       0       0       0       0       0       0       0       0       0       0       0       0       0       0       0       0
      Temps:          0       0       0       0       0       0       0       0       0       0       0       0       0       0       0       0       0       0       0       0       0       0       0       0       0       0       0
      Totals:         0       6       4       0       0       0       0       0       0       0       0       0       0       0       0       0       0       0       0       0       0       0       0       0       0       0       0
Total ram usage:       10 bytes
 Hardware stack levels used:    1
 Hardware stack levels required when called:    8
 This function calls:
		i1_vfprintf
 This function is called by:
		_frequency_calculation
 This function uses a non-reentrant model


 *************** function i1_vfprintf *****************
 Defined at:
		line 1390 in file "/opt/microchip/xc8/v2.31/pic/sources/c99/common/doprnt.c"
 Parameters:    Size  Location     Type
  fp              1    wreg     PTR struct _IO_FILE
		 -> NULL(0), 
  fmt             2   64[BANK0 ] PTR const unsigned char 
		 -> STR_12(12), STR_11(13), STR_9(29), STR_2(28), 
  ap              2   66[BANK0 ] PTR PTR void 
		 -> i1printf@ap(2), printf@ap(1), 
 Auto vars:     Size  Location     Type
  fp              1   69[BANK0 ] PTR struct _IO_FILE
		 -> NULL(0), 
  cfmt            2   70[BANK0 ] PTR unsigned char 
		 -> STR_12(12), STR_11(13), STR_9(29), STR_2(28), 
 Return value:  Size  Location     Type
                  2   64[BANK0 ] int 
 Registers used:
		wreg, fsr0l, fsr0h, fsr1l, fsr1h, status,2, status,0, pclath, cstack
 Tracked objects:
		On entry : 
		On exit  : 
		Unchanged: 
 Data sizes:     COMMON   BANK0   BANK1   BANK2   BANK3   BANK4   BANK5   BANK6   BANK7   BANK8   BANK9  BANK10  BANK11  BANK12  BANK13  BANK14  BANK15  BANK16  BANK17  BANK18  BANK19  BANK20  BANK21  BANK22  BANK23  BANK24  BANK25
      Params:         0       4       0       0       0       0       0       0       0       0       0       0       0       0       0       0       0       0       0       0       0       0       0       0       0       0       0
      Locals:         0       3       0       0       0       0       0       0       0       0       0       0       0       0       0       0       0       0       0       0       0       0       0       0       0       0       0
      Temps:          0       1       0       0       0       0       0       0       0       0       0       0       0       0       0       0       0       0       0       0       0       0       0       0       0       0       0
      Totals:         0       8       0       0       0       0       0       0       0       0       0       0       0       0       0       0       0       0       0       0       0       0       0       0       0       0       0
Total ram usage:        8 bytes
 Hardware stack levels used:    1
 Hardware stack levels required when called:    7
 This function calls:
		i1_vfpfcnvrt
 This function is called by:
		i1_printf
 This function uses a non-reentrant model


 *************** function i1_vfpfcnvrt *****************
 Defined at:
		line 692 in file "/opt/microchip/xc8/v2.31/pic/sources/c99/common/doprnt.c"
 Parameters:    Size  Location     Type
  fp              1    wreg     PTR struct _IO_FILE
		 -> NULL(0), 
  fmt             2   46[BANK0 ] PTR PTR unsigned char 
		 -> i1vfprintf@cfmt(2), vfprintf@cfmt(2), 
  ap              2   48[BANK0 ] PTR PTR void 
		 -> i1printf@ap(2), printf@ap(1), 
 Auto vars:     Size  Location     Type
  fp              1   63[BANK0 ] PTR struct _IO_FILE
		 -> NULL(0), 
  ll              8   55[BANK0 ] long long 
  llu             8    0        unsigned long long 
  f               4    0        unsigned long long 
  ct              3    0        unsigned char [3]
  vp              2    0        PTR void 
  i               2    0        int 
  done            2    0        int 
  cp              2    0        PTR unsigned char 
  c               1    0        unsigned char 
 Return value:  Size  Location     Type
                  2   46[BANK0 ] int 
 Registers used:
		wreg, fsr0l, fsr0h, fsr1l, fsr1h, status,2, status,0, pclath, cstack
 Tracked objects:
		On entry : 
		On exit  : 
		Unchanged: 
 Data sizes:     COMMON   BANK0   BANK1   BANK2   BANK3   BANK4   BANK5   BANK6   BANK7   BANK8   BANK9  BANK10  BANK11  BANK12  BANK13  BANK14  BANK15  BANK16  BANK17  BANK18  BANK19  BANK20  BANK21  BANK22  BANK23  BANK24  BANK25
      Params:         0       4       0       0       0       0       0       0       0       0       0       0       0       0       0       0       0       0       0       0       0       0       0       0       0       0       0
      Locals:         0       9       0       0       0       0       0       0       0       0       0       0       0       0       0       0       0       0       0       0       0       0       0       0       0       0       0
      Temps:          0       5       0       0       0       0       0       0       0       0       0       0       0       0       0       0       0       0       0       0       0       0       0       0       0       0       0
      Totals:         0      18       0       0       0       0       0       0       0       0       0       0       0       0       0       0       0       0       0       0       0       0       0       0       0       0       0
Total ram usage:       18 bytes
 Hardware stack levels used:    1
 Hardware stack levels required when called:    6
 This function calls:
		i1_dtoa
		i1_fputc
 This function is called by:
		i1_vfprintf
 This function uses a non-reentrant model


 *************** function i1_dtoa *****************
 Defined at:
		line 287 in file "/opt/microchip/xc8/v2.31/pic/sources/c99/common/doprnt.c"
 Parameters:    Size  Location     Type
  fp              1    wreg     PTR struct _IO_FILE
		 -> NULL(0), 
  d               8   16[BANK0 ] long long 
 Auto vars:     Size  Location     Type
  fp              1   27[BANK0 ] PTR struct _IO_FILE
		 -> NULL(0), 
  n               8   36[BANK0 ] long long 
  i               2   44[BANK0 ] int 
  s               2   34[BANK0 ] int 
  w               2   32[BANK0 ] int 
  p               2   30[BANK0 ] int 
 Return value:  Size  Location     Type
                  2   16[BANK0 ] int 
 Registers used:
		wreg, fsr0l, fsr0h, fsr1l, fsr1h, status,2, status,0, pclath, cstack
 Tracked objects:
		On entry : 
		On exit  : 
		Unchanged: 
 Data sizes:     COMMON   BANK0   BANK1   BANK2   BANK3   BANK4   BANK5   BANK6   BANK7   BANK8   BANK9  BANK10  BANK11  BANK12  BANK13  BANK14  BANK15  BANK16  BANK17  BANK18  BANK19  BANK20  BANK21  BANK22  BANK23  BANK24  BANK25
      Params:         0       8       0       0       0       0       0       0       0       0       0       0       0       0       0       0       0       0       0       0       0       0       0       0       0       0       0
      Locals:         0      19       0       0       0       0       0       0       0       0       0       0       0       0       0       0       0       0       0       0       0       0       0       0       0       0       0
      Temps:          0       3       0       0       0       0       0       0       0       0       0       0       0       0       0       0       0       0       0       0       0       0       0       0       0       0       0
      Totals:         0      30       0       0       0       0       0       0       0       0       0       0       0       0       0       0       0       0       0       0       0       0       0       0       0       0       0
Total ram usage:       30 bytes
 Hardware stack levels used:    1
 Hardware stack levels required when called:    5
 This function calls:
		i1___aodiv
		i1___aomod
		i1_abs
		i1_pad
 This function is called by:
		i1_vfpfcnvrt
 This function uses a non-reentrant model


 *************** function i1_pad *****************
 Defined at:
		line 72 in file "/opt/microchip/xc8/v2.31/pic/sources/c99/common/doprnt.c"
 Parameters:    Size  Location     Type
  fp              1    wreg     PTR struct _IO_FILE
		 -> NULL(0), 
  buf             1    6[BANK0 ] PTR unsigned char 
		 -> dbuf(32), 
  p               2    7[BANK0 ] int 
 Auto vars:     Size  Location     Type
  fp              1   13[BANK0 ] PTR struct _IO_FILE
		 -> NULL(0), 
  w               2   11[BANK0 ] int 
  i               2    9[BANK0 ] int 
 Return value:  Size  Location     Type
                  2    6[BANK0 ] int 
 Registers used:
		wreg, fsr0l, fsr0h, fsr1l, fsr1h, status,2, status,0, pclath, cstack
 Tracked objects:
		On entry : 
		On exit  : 
		Unchanged: 
 Data sizes:     COMMON   BANK0   BANK1   BANK2   BANK3   BANK4   BANK5   BANK6   BANK7   BANK8   BANK9  BANK10  BANK11  BANK12  BANK13  BANK14  BANK15  BANK16  BANK17  BANK18  BANK19  BANK20  BANK21  BANK22  BANK23  BANK24  BANK25
      Params:         0       3       0       0       0       0       0       0       0       0       0       0       0       0       0       0       0       0       0       0       0       0       0       0       0       0       0
      Locals:         0       5       0       0       0       0       0       0       0       0       0       0       0       0       0       0       0       0       0       0       0       0       0       0       0       0       0
      Temps:          1       0       0       0       0       0       0       0       0       0       0       0       0       0       0       0       0       0       0       0       0       0       0       0       0       0       0
      Totals:         1       8       0       0       0       0       0       0       0       0       0       0       0       0       0       0       0       0       0       0       0       0       0       0       0       0       0
Total ram usage:        9 bytes
 Hardware stack levels used:    1
 Hardware stack levels required when called:    4
 This function calls:
		i1_fputc
		i1_fputs
		i1_strlen
 This function is called by:
		i1_dtoa
 This function uses a non-reentrant model


 *************** function i1_strlen *****************
 Defined at:
		line 5 in file "/opt/microchip/xc8/v2.31/pic/sources/c99/common/strlen.c"
 Parameters:    Size  Location     Type
  s               1    wreg     PTR const unsigned char 
		 -> dbuf(32), 
 Auto vars:     Size  Location     Type
  s               1    4[COMMON] PTR const unsigned char 
		 -> dbuf(32), 
  a               1    3[COMMON] PTR const unsigned char 
		 -> dbuf(32), 
 Return value:  Size  Location     Type
                  2    0[COMMON] unsigned int 
 Registers used:
		wreg, fsr1l, fsr1h, status,2, status,0
 Tracked objects:
		On entry : 
		On exit  : 
		Unchanged: 
 Data sizes:     COMMON   BANK0   BANK1   BANK2   BANK3   BANK4   BANK5   BANK6   BANK7   BANK8   BANK9  BANK10  BANK11  BANK12  BANK13  BANK14  BANK15  BANK16  BANK17  BANK18  BANK19  BANK20  BANK21  BANK22  BANK23  BANK24  BANK25
      Params:         2       0       0       0       0       0       0       0       0       0       0       0       0       0       0       0       0       0       0       0       0       0       0       0       0       0       0
      Locals:         2       0       0       0       0       0       0       0       0       0       0       0       0       0       0       0       0       0       0       0       0       0       0       0       0       0       0
      Temps:          1       0       0       0       0       0       0       0       0       0       0       0       0       0       0       0       0       0       0       0       0       0       0       0       0       0       0
      Totals:         5       0       0       0       0       0       0       0       0       0       0       0       0       0       0       0       0       0       0       0       0       0       0       0       0       0       0
Total ram usage:        5 bytes
 Hardware stack levels used:    1
 This function calls:
		Nothing
 This function is called by:
		i1_pad
 This function uses a non-reentrant model


 *************** function i1_abs *****************
 Defined at:
		line 1 in file "/opt/microchip/xc8/v2.31/pic/sources/c99/common/abs.c"
 Parameters:    Size  Location     Type
  a               2    3[COMMON] int 
 Auto vars:     Size  Location     Type
		None
 Return value:  Size  Location     Type
                  2    3[COMMON] int 
 Registers used:
		wreg, status,2, status,0
 Tracked objects:
		On entry : 
		On exit  : 
		Unchanged: 
 Data sizes:     COMMON   BANK0   BANK1   BANK2   BANK3   BANK4   BANK5   BANK6   BANK7   BANK8   BANK9  BANK10  BANK11  BANK12  BANK13  BANK14  BANK15  BANK16  BANK17  BANK18  BANK19  BANK20  BANK21  BANK22  BANK23  BANK24  BANK25
      Params:         2       0       0       0       0       0       0       0       0       0       0       0       0       0       0       0       0       0       0       0       0       0       0       0       0       0       0
      Locals:         0       0       0       0       0       0       0       0       0       0       0       0       0       0       0       0       0       0       0       0       0       0       0       0       0       0       0
      Temps:          2       0       0       0       0       0       0       0       0       0       0       0       0       0       0       0       0       0       0       0       0       0       0       0       0       0       0
      Totals:         4       0       0       0       0       0       0       0       0       0       0       0       0       0       0       0       0       0       0       0       0       0       0       0       0       0       0
Total ram usage:        4 bytes
 Hardware stack levels used:    1
 This function calls:
		Nothing
 This function is called by:
		i1_dtoa
 This function uses a non-reentrant model


 *************** function i1___aomod *****************
 Defined at:
		line 7 in file "/opt/microchip/xc8/v2.31/pic/sources/c99/common/aomod.c"
 Parameters:    Size  Location     Type
  divisor         8    0[BANK0 ] long long 
  dividend        8    8[BANK0 ] long long 
 Auto vars:     Size  Location     Type
  sign            1    2[COMMON] unsigned char 
  counter         1    1[COMMON] unsigned char 
 Return value:  Size  Location     Type
                  8    0[BANK0 ] long long 
 Registers used:
		wreg, fsr1l, fsr1h, status,2, status,0
 Tracked objects:
		On entry : 
		On exit  : 
		Unchanged: 
 Data sizes:     COMMON   BANK0   BANK1   BANK2   BANK3   BANK4   BANK5   BANK6   BANK7   BANK8   BANK9  BANK10  BANK11  BANK12  BANK13  BANK14  BANK15  BANK16  BANK17  BANK18  BANK19  BANK20  BANK21  BANK22  BANK23  BANK24  BANK25
      Params:         0      16       0       0       0       0       0       0       0       0       0       0       0       0       0       0       0       0       0       0       0       0       0       0       0       0       0
      Locals:         2       0       0       0       0       0       0       0       0       0       0       0       0       0       0       0       0       0       0       0       0       0       0       0       0       0       0
      Temps:          1       0       0       0       0       0       0       0       0       0       0       0       0       0       0       0       0       0       0       0       0       0       0       0       0       0       0
      Totals:         3      16       0       0       0       0       0       0       0       0       0       0       0       0       0       0       0       0       0       0       0       0       0       0       0       0       0
Total ram usage:       19 bytes
 Hardware stack levels used:    1
 This function calls:
		Nothing
 This function is called by:
		i1_dtoa
 This function uses a non-reentrant model


 *************** function i1___aodiv *****************
 Defined at:
		line 7 in file "/opt/microchip/xc8/v2.31/pic/sources/c99/common/aodiv.c"
 Parameters:    Size  Location     Type
  divisor         8    0[BANK0 ] long long 
  dividend        8    8[BANK0 ] long long 
 Auto vars:     Size  Location     Type
  quotient        8    3[COMMON] long long 
  sign            1    2[COMMON] unsigned char 
  counter         1    1[COMMON] unsigned char 
 Return value:  Size  Location     Type
                  8    0[BANK0 ] long long 
 Registers used:
		wreg, fsr1l, fsr1h, status,2, status,0
 Tracked objects:
		On entry : 
		On exit  : 
		Unchanged: 
 Data sizes:     COMMON   BANK0   BANK1   BANK2   BANK3   BANK4   BANK5   BANK6   BANK7   BANK8   BANK9  BANK10  BANK11  BANK12  BANK13  BANK14  BANK15  BANK16  BANK17  BANK18  BANK19  BANK20  BANK21  BANK22  BANK23  BANK24  BANK25
      Params:         0      16       0       0       0       0       0       0       0       0       0       0       0       0       0       0       0       0       0       0       0       0       0       0       0       0       0
      Locals:        10       0       0       0       0       0       0       0       0       0       0       0       0       0       0       0       0       0       0       0       0       0       0       0       0       0       0
      Temps:          1       0       0       0       0       0       0       0       0       0       0       0       0       0       0       0       0       0       0       0       0       0       0       0       0       0       0
      Totals:        11      16       0       0       0       0       0       0       0       0       0       0       0       0       0       0       0       0       0       0       0       0       0       0       0       0       0
Total ram usage:       27 bytes
 Hardware stack levels used:    1
 This function calls:
		Nothing
 This function is called by:
		i1_dtoa
 This function uses a non-reentrant model


 *************** function i1_is_moving *****************
 Defined at:
		line 26 in file "spd.c"
 Parameters:    Size  Location     Type
		None
 Auto vars:     Size  Location     Type
		None
 Return value:  Size  Location     Type
                  1    wreg      _Bool 
 Registers used:
		wreg, status,2, status,0
 Tracked objects:
		On entry : 
		On exit  : 
		Unchanged: 
 Data sizes:     COMMON   BANK0   BANK1   BANK2   BANK3   BANK4   BANK5   BANK6   BANK7   BANK8   BANK9  BANK10  BANK11  BANK12  BANK13  BANK14  BANK15  BANK16  BANK17  BANK18  BANK19  BANK20  BANK21  BANK22  BANK23  BANK24  BANK25
      Params:         0       0       0       0       0       0       0       0       0       0       0       0       0       0       0       0       0       0       0       0       0       0       0       0       0       0       0
      Locals:         0       0       0       0       0       0       0       0       0       0       0       0       0       0       0       0       0       0       0       0       0       0       0       0       0       0       0
      Temps:          0       0       0       0       0       0       0       0       0       0       0       0       0       0       0       0       0       0       0       0       0       0       0       0       0       0       0
      Totals:         0       0       0       0       0       0       0       0       0       0       0       0       0       0       0       0       0       0       0       0       0       0       0       0       0       0       0
Total ram usage:        0 bytes
 Hardware stack levels used:    1
 This function calls:
		Nothing
 This function is called by:
		_frequency_calculation
 This function uses a non-reentrant model


 *************** function i1___xxtofl *****************
 Defined at:
		line 10 in file "/opt/microchip/xc8/v2.31/pic/sources/c99/common/xxtofl.c"
 Parameters:    Size  Location     Type
  sign            1    wreg     unsigned char 
  val             4    0[COMMON] long 
 Auto vars:     Size  Location     Type
  sign            1    8[COMMON] unsigned char 
  arg             4   10[COMMON] unsigned long 
  exp             1    9[COMMON] unsigned char 
 Return value:  Size  Location     Type
                  4    0[COMMON] unsigned char 
 Registers used:
		wreg, status,2, status,0
 Tracked objects:
		On entry : 
		On exit  : 
		Unchanged: 
 Data sizes:     COMMON   BANK0   BANK1   BANK2   BANK3   BANK4   BANK5   BANK6   BANK7   BANK8   BANK9  BANK10  BANK11  BANK12  BANK13  BANK14  BANK15  BANK16  BANK17  BANK18  BANK19  BANK20  BANK21  BANK22  BANK23  BANK24  BANK25
      Params:         4       0       0       0       0       0       0       0       0       0       0       0       0       0       0       0       0       0       0       0       0       0       0       0       0       0       0
      Locals:         6       0       0       0       0       0       0       0       0       0       0       0       0       0       0       0       0       0       0       0       0       0       0       0       0       0       0
      Temps:          4       0       0       0       0       0       0       0       0       0       0       0       0       0       0       0       0       0       0       0       0       0       0       0       0       0       0
      Totals:        14       0       0       0       0       0       0       0       0       0       0       0       0       0       0       0       0       0       0       0       0       0       0       0       0       0       0
Total ram usage:       14 bytes
 Hardware stack levels used:    1
 This function calls:
		Nothing
 This function is called by:
		_frequency_calculation
 This function uses a non-reentrant model


 *************** function i1___fltol *****************
 Defined at:
		line 43 in file "/opt/microchip/xc8/v2.31/pic/sources/c99/common/fltol.c"
 Parameters:    Size  Location     Type
  f1              4   26[BANK0 ] unsigned char 
 Auto vars:     Size  Location     Type
  exp1            1   36[BANK0 ] unsigned char 
  sign1           1   35[BANK0 ] unsigned char 
 Return value:  Size  Location     Type
                  4   26[BANK0 ] long 
 Registers used:
		wreg, status,2, status,0
 Tracked objects:
		On entry : 
		On exit  : 
		Unchanged: 
 Data sizes:     COMMON   BANK0   BANK1   BANK2   BANK3   BANK4   BANK5   BANK6   BANK7   BANK8   BANK9  BANK10  BANK11  BANK12  BANK13  BANK14  BANK15  BANK16  BANK17  BANK18  BANK19  BANK20  BANK21  BANK22  BANK23  BANK24  BANK25
      Params:         0       4       0       0       0       0       0       0       0       0       0       0       0       0       0       0       0       0       0       0       0       0       0       0       0       0       0
      Locals:         0       2       0       0       0       0       0       0       0       0       0       0       0       0       0       0       0       0       0       0       0       0       0       0       0       0       0
      Temps:          0       5       0       0       0       0       0       0       0       0       0       0       0       0       0       0       0       0       0       0       0       0       0       0       0       0       0
      Totals:         0      11       0       0       0       0       0       0       0       0       0       0       0       0       0       0       0       0       0       0       0       0       0       0       0       0       0
Total ram usage:       11 bytes
 Hardware stack levels used:    1
 This function calls:
		Nothing
 This function is called by:
		_frequency_calculation
 This function uses a non-reentrant model


 *************** function i1___flmul *****************
 Defined at:
		line 8 in file "/opt/microchip/xc8/v2.31/pic/sources/c99/common/sprcmul.c"
 Parameters:    Size  Location     Type
  b               4    0[BANK0 ] long 
  a               4    4[BANK0 ] long 
 Auto vars:     Size  Location     Type
  prod            4   20[BANK0 ] struct .
  grs             4   14[BANK0 ] unsigned long 
  temp            2   24[BANK0 ] struct .
  bexp            1   19[BANK0 ] unsigned char 
  aexp            1   18[BANK0 ] unsigned char 
  sign            1   13[BANK0 ] unsigned char 
 Return value:  Size  Location     Type
                  4    0[BANK0 ] unsigned char 
 Registers used:
		wreg, status,2, status,0, pclath, cstack
 Tracked objects:
		On entry : 
		On exit  : 
		Unchanged: 
 Data sizes:     COMMON   BANK0   BANK1   BANK2   BANK3   BANK4   BANK5   BANK6   BANK7   BANK8   BANK9  BANK10  BANK11  BANK12  BANK13  BANK14  BANK15  BANK16  BANK17  BANK18  BANK19  BANK20  BANK21  BANK22  BANK23  BANK24  BANK25
      Params:         0       8       0       0       0       0       0       0       0       0       0       0       0       0       0       0       0       0       0       0       0       0       0       0       0       0       0
      Locals:         0      13       0       0       0       0       0       0       0       0       0       0       0       0       0       0       0       0       0       0       0       0       0       0       0       0       0
      Temps:          0       5       0       0       0       0       0       0       0       0       0       0       0       0       0       0       0       0       0       0       0       0       0       0       0       0       0
      Totals:         0      26       0       0       0       0       0       0       0       0       0       0       0       0       0       0       0       0       0       0       0       0       0       0       0       0       0
Total ram usage:       26 bytes
 Hardware stack levels used:    1
 Hardware stack levels required when called:    1
 This function calls:
		i1__Umul8_16
 This function is called by:
		_frequency_calculation
 This function uses a non-reentrant model


 *************** function i1__Umul8_16 *****************
 Defined at:
		line 4 in file "/opt/microchip/xc8/v2.31/pic/sources/c99/common/Umul8_16.c"
 Parameters:    Size  Location     Type
  multiplier      1    wreg     unsigned char 
  multiplicand    1    0[COMMON] unsigned char 
 Auto vars:     Size  Location     Type
  multiplier      1    8[COMMON] unsigned char 
  word_mpld       2    6[COMMON] unsigned int 
  product         2    4[COMMON] unsigned int 
 Return value:  Size  Location     Type
                  2    0[COMMON] unsigned int 
 Registers used:
		wreg, status,2, status,0
 Tracked objects:
		On entry : 
		On exit  : 
		Unchanged: 
 Data sizes:     COMMON   BANK0   BANK1   BANK2   BANK3   BANK4   BANK5   BANK6   BANK7   BANK8   BANK9  BANK10  BANK11  BANK12  BANK13  BANK14  BANK15  BANK16  BANK17  BANK18  BANK19  BANK20  BANK21  BANK22  BANK23  BANK24  BANK25
      Params:         2       0       0       0       0       0       0       0       0       0       0       0       0       0       0       0       0       0       0       0       0       0       0       0       0       0       0
      Locals:         5       0       0       0       0       0       0       0       0       0       0       0       0       0       0       0       0       0       0       0       0       0       0       0       0       0       0
      Temps:          2       0       0       0       0       0       0       0       0       0       0       0       0       0       0       0       0       0       0       0       0       0       0       0       0       0       0
      Totals:         9       0       0       0       0       0       0       0       0       0       0       0       0       0       0       0       0       0       0       0       0       0       0       0       0       0       0
Total ram usage:        9 bytes
 Hardware stack levels used:    1
 This function calls:
		Nothing
 This function is called by:
		i1___flmul
 This function uses a non-reentrant model


 *************** function i1_TMR6_LoadPeriodRegister *****************
 Defined at:
		line 106 in file "mcc_generated_files/tmr6.c"
 Parameters:    Size  Location     Type
  periodVal       1    wreg     unsigned char 
 Auto vars:     Size  Location     Type
  periodVal       1    0[COMMON] unsigned char 
 Return value:  Size  Location     Type
                  1    wreg      void 
 Registers used:
		wreg
 Tracked objects:
		On entry : 
		On exit  : 
		Unchanged: 
 Data sizes:     COMMON   BANK0   BANK1   BANK2   BANK3   BANK4   BANK5   BANK6   BANK7   BANK8   BANK9  BANK10  BANK11  BANK12  BANK13  BANK14  BANK15  BANK16  BANK17  BANK18  BANK19  BANK20  BANK21  BANK22  BANK23  BANK24  BANK25
      Params:         0       0       0       0       0       0       0       0       0       0       0       0       0       0       0       0       0       0       0       0       0       0       0       0       0       0       0
      Locals:         1       0       0       0       0       0       0       0       0       0       0       0       0       0       0       0       0       0       0       0       0       0       0       0       0       0       0
      Temps:          0       0       0       0       0       0       0       0       0       0       0       0       0       0       0       0       0       0       0       0       0       0       0       0       0       0       0
      Totals:         1       0       0       0       0       0       0       0       0       0       0       0       0       0       0       0       0       0       0       0       0       0       0       0       0       0       0
Total ram usage:        1 bytes
 Hardware stack levels used:    1
 This function calls:
		Nothing
 This function is called by:
		_frequency_calculation
 This function uses a non-reentrant model


 *************** function i1_PWM6_LoadDutyValue *****************
 Defined at:
		line 74 in file "mcc_generated_files/pwm6.c"
 Parameters:    Size  Location     Type
  dutyValue       2    0[COMMON] unsigned short 
 Auto vars:     Size  Location     Type
		None
 Return value:  Size  Location     Type
                  1    wreg      void 
 Registers used:
		wreg, status,2, status,0
 Tracked objects:
		On entry : 
		On exit  : 
		Unchanged: 
 Data sizes:     COMMON   BANK0   BANK1   BANK2   BANK3   BANK4   BANK5   BANK6   BANK7   BANK8   BANK9  BANK10  BANK11  BANK12  BANK13  BANK14  BANK15  BANK16  BANK17  BANK18  BANK19  BANK20  BANK21  BANK22  BANK23  BANK24  BANK25
      Params:         2       0       0       0       0       0       0       0       0       0       0       0       0       0       0       0       0       0       0       0       0       0       0       0       0       0       0
      Locals:         0       0       0       0       0       0       0       0       0       0       0       0       0       0       0       0       0       0       0       0       0       0       0       0       0       0       0
      Temps:          2       0       0       0       0       0       0       0       0       0       0       0       0       0       0       0       0       0       0       0       0       0       0       0       0       0       0
      Totals:         4       0       0       0       0       0       0       0       0       0       0       0       0       0       0       0       0       0       0       0       0       0       0       0       0       0       0
Total ram usage:        4 bytes
 Hardware stack levels used:    1
 This function calls:
		Nothing
 This function is called by:
		_frequency_calculation
 This function uses a non-reentrant model


 *************** function _TMR0_Reload *****************
 Defined at:
		line 128 in file "mcc_generated_files/tmr0.c"
 Parameters:    Size  Location     Type
		None
 Auto vars:     Size  Location     Type
		None
 Return value:  Size  Location     Type
                  1    wreg      void 
 Registers used:
		wreg, status,2
 Tracked objects:
		On entry : 
		On exit  : 
		Unchanged: 
 Data sizes:     COMMON   BANK0   BANK1   BANK2   BANK3   BANK4   BANK5   BANK6   BANK7   BANK8   BANK9  BANK10  BANK11  BANK12  BANK13  BANK14  BANK15  BANK16  BANK17  BANK18  BANK19  BANK20  BANK21  BANK22  BANK23  BANK24  BANK25
      Params:         0       0       0       0       0       0       0       0       0       0       0       0       0       0       0       0       0       0       0       0       0       0       0       0       0       0       0
      Locals:         0       0       0       0       0       0       0       0       0       0       0       0       0       0       0       0       0       0       0       0       0       0       0       0       0       0       0
      Temps:          0       0       0       0       0       0       0       0       0       0       0       0       0       0       0       0       0       0       0       0       0       0       0       0       0       0       0
      Totals:         0       0       0       0       0       0       0       0       0       0       0       0       0       0       0       0       0       0       0       0       0       0       0       0       0       0       0
Total ram usage:        0 bytes
 Hardware stack levels used:    1
 This function calls:
		Nothing
 This function is called by:
		_frequency_calculation
 This function uses a non-reentrant model


 *************** function _TMR1_WriteTimer *****************
 Defined at:
		line 120 in file "mcc_generated_files/tmr1.c"
 Parameters:    Size  Location     Type
  timerVal        2    0[COMMON] unsigned short 
 Auto vars:     Size  Location     Type
		None
 Return value:  Size  Location     Type
                  1    wreg      void 
 Registers used:
		wreg, status,2
 Tracked objects:
		On entry : 
		On exit  : 
		Unchanged: 
 Data sizes:     COMMON   BANK0   BANK1   BANK2   BANK3   BANK4   BANK5   BANK6   BANK7   BANK8   BANK9  BANK10  BANK11  BANK12  BANK13  BANK14  BANK15  BANK16  BANK17  BANK18  BANK19  BANK20  BANK21  BANK22  BANK23  BANK24  BANK25
      Params:         2       0       0       0       0       0       0       0       0       0       0       0       0       0       0       0       0       0       0       0       0       0       0       0       0       0       0
      Locals:         0       0       0       0       0       0       0       0       0       0       0       0       0       0       0       0       0       0       0       0       0       0       0       0       0       0       0
      Temps:          0       0       0       0       0       0       0       0       0       0       0       0       0       0       0       0       0       0       0       0       0       0       0       0       0       0       0
      Totals:         2       0       0       0       0       0       0       0       0       0       0       0       0       0       0       0       0       0       0       0       0       0       0       0       0       0       0
Total ram usage:        2 bytes
 Hardware stack levels used:    1
 This function calls:
		Nothing
 This function is called by:
		_TMR1_ISR
		_TMR1_Reload
 This function uses a non-reentrant model


 *************** function _TMR0_ISR *****************
 Defined at:
		line 135 in file "mcc_generated_files/tmr0.c"
 Parameters:    Size  Location     Type
		None
 Auto vars:     Size  Location     Type
		None
 Return value:  Size  Location     Type
                  1    wreg      void 
 Registers used:
		wreg, fsr0l, fsr0h, fsr1l, fsr1h, status,2, status,0, pclath, cstack
 Tracked objects:
		On entry : 
		On exit  : 
		Unchanged: 
 Data sizes:     COMMON   BANK0   BANK1   BANK2   BANK3   BANK4   BANK5   BANK6   BANK7   BANK8   BANK9  BANK10  BANK11  BANK12  BANK13  BANK14  BANK15  BANK16  BANK17  BANK18  BANK19  BANK20  BANK21  BANK22  BANK23  BANK24  BANK25
      Params:         0       0       0       0       0       0       0       0       0       0       0       0       0       0       0       0       0       0       0       0       0       0       0       0       0       0       0
      Locals:         0       0       0       0       0       0       0       0       0       0       0       0       0       0       0       0       0       0       0       0       0       0       0       0       0       0       0
      Temps:          0       0       0       0       0       0       0       0       0       0       0       0       0       0       0       0       0       0       0       0       0       0       0       0       0       0       0
      Totals:         0       0       0       0       0       0       0       0       0       0       0       0       0       0       0       0       0       0       0       0       0       0       0       0       0       0       0
Total ram usage:        0 bytes
 Hardware stack levels used:    1
 Hardware stack levels required when called:    6
 This function calls:
		Absolute function
		_TMR0_DefaultInterruptHandler
 This function is called by:
		_INTERRUPT_InterruptManager
 This function uses a non-reentrant model


 *************** function _TMR0_DefaultInterruptHandler *****************
 Defined at:
		line 159 in file "mcc_generated_files/tmr0.c"
 Parameters:    Size  Location     Type
		None
 Auto vars:     Size  Location     Type
		None
 Return value:  Size  Location     Type
                  1    wreg      void 
 Registers used:
		wreg, fsr0l, fsr0h, fsr1l, fsr1h, status,2, status,0, pclath, cstack
 Tracked objects:
		On entry : 
		On exit  : 
		Unchanged: 
 Data sizes:     COMMON   BANK0   BANK1   BANK2   BANK3   BANK4   BANK5   BANK6   BANK7   BANK8   BANK9  BANK10  BANK11  BANK12  BANK13  BANK14  BANK15  BANK16  BANK17  BANK18  BANK19  BANK20  BANK21  BANK22  BANK23  BANK24  BANK25
      Params:         0       0       0       0       0       0       0       0       0       0       0       0       0       0       0       0       0       0       0       0       0       0       0       0       0       0       0
      Locals:         0       0       0       0       0       0       0       0       0       0       0       0       0       0       0       0       0       0       0       0       0       0       0       0       0       0       0
      Temps:          0       0       0       0       0       0       0       0       0       0       0       0       0       0       0       0       0       0       0       0       0       0       0       0       0       0       0
      Totals:         0       0       0       0       0       0       0       0       0       0       0       0       0       0       0       0       0       0       0       0       0       0       0       0       0       0       0
Total ram usage:        0 bytes
 Hardware stack levels used:    1
 Hardware stack levels required when called:    5
 This function calls:
		i1_puts
 This function is called by:
		_TMR0_Initialize
		_TMR0_ISR
 This function uses a non-reentrant model


 *************** function i1_puts *****************
 Defined at:
		line 3 in file "/opt/microchip/xc8/v2.31/pic/sources/c99/common/puts.c"
 Parameters:    Size  Location     Type
  s               2    6[BANK0 ] PTR const unsigned char 
		 -> STR_22(44), STR_21(48), STR_20(33), STR_19(39), 
		 -> STR_18(36), STR_17(48), STR_16(30), STR_15(33), 
		 -> STR_14(33), STR_13(46), STR_10(31), STR_8(34), 
		 -> STR_7(25), STR_6(23), STR_5(29), STR_4(38), 
		 -> STR_3(27), STR_1(29), 
 Auto vars:     Size  Location     Type
  r               2    0        int 
 Return value:  Size  Location     Type
                  2    6[BANK0 ] int 
 Registers used:
		wreg, fsr0l, fsr0h, fsr1l, fsr1h, status,2, status,0, pclath, cstack
 Tracked objects:
		On entry : 
		On exit  : 
		Unchanged: 
 Data sizes:     COMMON   BANK0   BANK1   BANK2   BANK3   BANK4   BANK5   BANK6   BANK7   BANK8   BANK9  BANK10  BANK11  BANK12  BANK13  BANK14  BANK15  BANK16  BANK17  BANK18  BANK19  BANK20  BANK21  BANK22  BANK23  BANK24  BANK25
      Params:         0       2       0       0       0       0       0       0       0       0       0       0       0       0       0       0       0       0       0       0       0       0       0       0       0       0       0
      Locals:         0       3       0       0       0       0       0       0       0       0       0       0       0       0       0       0       0       0       0       0       0       0       0       0       0       0       0
      Temps:          0       0       0       0       0       0       0       0       0       0       0       0       0       0       0       0       0       0       0       0       0       0       0       0       0       0       0
      Totals:         0       5       0       0       0       0       0       0       0       0       0       0       0       0       0       0       0       0       0       0       0       0       0       0       0       0       0
Total ram usage:        5 bytes
 Hardware stack levels used:    1
 Hardware stack levels required when called:    4
 This function calls:
		i1_fputc
		i1_fputs
 This function is called by:
		_TMR0_DefaultInterruptHandler
		_led_indicate
 This function uses a non-reentrant model


 *************** function i1_fputs *****************
 Defined at:
		line 8 in file "/opt/microchip/xc8/v2.31/pic/sources/c99/common/nf_fputs.c"
 Parameters:    Size  Location     Type
  s               2   10[COMMON] PTR const unsigned char 
		 -> dbuf(32), STR_22(44), STR_21(48), STR_20(33), 
		 -> STR_19(39), STR_18(36), STR_17(48), STR_16(30), 
		 -> STR_15(33), STR_14(33), STR_13(46), STR_10(31), 
		 -> STR_8(34), STR_7(25), STR_6(23), STR_5(29), 
		 -> STR_4(38), STR_3(27), STR_1(29), 
  fp              1   12[COMMON] PTR struct _IO_FILE
		 -> NULL(0), 
 Auto vars:     Size  Location     Type
  i               2    4[BANK0 ] int 
  c               1    3[BANK0 ] unsigned char 
 Return value:  Size  Location     Type
                  2   10[COMMON] int 
 Registers used:
		wreg, fsr0l, fsr0h, fsr1l, fsr1h, status,2, status,0, pclath, cstack
 Tracked objects:
		On entry : 
		On exit  : 
		Unchanged: 
 Data sizes:     COMMON   BANK0   BANK1   BANK2   BANK3   BANK4   BANK5   BANK6   BANK7   BANK8   BANK9  BANK10  BANK11  BANK12  BANK13  BANK14  BANK15  BANK16  BANK17  BANK18  BANK19  BANK20  BANK21  BANK22  BANK23  BANK24  BANK25
      Params:         3       0       0       0       0       0       0       0       0       0       0       0       0       0       0       0       0       0       0       0       0       0       0       0       0       0       0
      Locals:         0       3       0       0       0       0       0       0       0       0       0       0       0       0       0       0       0       0       0       0       0       0       0       0       0       0       0
      Temps:          0       3       0       0       0       0       0       0       0       0       0       0       0       0       0       0       0       0       0       0       0       0       0       0       0       0       0
      Totals:         3       6       0       0       0       0       0       0       0       0       0       0       0       0       0       0       0       0       0       0       0       0       0       0       0       0       0
Total ram usage:        9 bytes
 Hardware stack levels used:    1
 Hardware stack levels required when called:    3
 This function calls:
		i1_fputc
 This function is called by:
		i1_pad
		i1_puts
 This function uses a non-reentrant model


 *************** function i1_fputc *****************
 Defined at:
		line 8 in file "/opt/microchip/xc8/v2.31/pic/sources/c99/common/nf_fputc.c"
 Parameters:    Size  Location     Type
  c               2    2[COMMON] int 
  fp              1    4[COMMON] PTR struct _IO_FILE
		 -> NULL(0), 
 Auto vars:     Size  Location     Type
		None
 Return value:  Size  Location     Type
                  2    2[COMMON] int 
 Registers used:
		wreg, fsr1l, fsr1h, status,2, status,0, pclath, cstack
 Tracked objects:
		On entry : 
		On exit  : 
		Unchanged: 
 Data sizes:     COMMON   BANK0   BANK1   BANK2   BANK3   BANK4   BANK5   BANK6   BANK7   BANK8   BANK9  BANK10  BANK11  BANK12  BANK13  BANK14  BANK15  BANK16  BANK17  BANK18  BANK19  BANK20  BANK21  BANK22  BANK23  BANK24  BANK25
      Params:         3       0       0       0       0       0       0       0       0       0       0       0       0       0       0       0       0       0       0       0       0       0       0       0       0       0       0
      Locals:         0       0       0       0       0       0       0       0       0       0       0       0       0       0       0       0       0       0       0       0       0       0       0       0       0       0       0
      Temps:          5       0       0       0       0       0       0       0       0       0       0       0       0       0       0       0       0       0       0       0       0       0       0       0       0       0       0
      Totals:         8       0       0       0       0       0       0       0       0       0       0       0       0       0       0       0       0       0       0       0       0       0       0       0       0       0       0
Total ram usage:        8 bytes
 Hardware stack levels used:    1
 Hardware stack levels required when called:    2
 This function calls:
		i1_putch
 This function is called by:
		i1_pad
		i1_vfpfcnvrt
		i1_fputs
		i1_puts
 This function uses a non-reentrant model


 *************** function i1_putch *****************
 Defined at:
		line 154 in file "mcc_generated_files/eusart.c"
 Parameters:    Size  Location     Type
  txData          1    wreg     unsigned char 
 Auto vars:     Size  Location     Type
  txData          1    1[COMMON] unsigned char 
 Return value:  Size  Location     Type
                  1    wreg      void 
 Registers used:
		wreg, status,2, status,0, pclath, cstack
 Tracked objects:
		On entry : 
		On exit  : 
		Unchanged: 
 Data sizes:     COMMON   BANK0   BANK1   BANK2   BANK3   BANK4   BANK5   BANK6   BANK7   BANK8   BANK9  BANK10  BANK11  BANK12  BANK13  BANK14  BANK15  BANK16  BANK17  BANK18  BANK19  BANK20  BANK21  BANK22  BANK23  BANK24  BANK25
      Params:         0       0       0       0       0       0       0       0       0       0       0       0       0       0       0       0       0       0       0       0       0       0       0       0       0       0       0
      Locals:         1       0       0       0       0       0       0       0       0       0       0       0       0       0       0       0       0       0       0       0       0       0       0       0       0       0       0
      Temps:          0       0       0       0       0       0       0       0       0       0       0       0       0       0       0       0       0       0       0       0       0       0       0       0       0       0       0
      Totals:         1       0       0       0       0       0       0       0       0       0       0       0       0       0       0       0       0       0       0       0       0       0       0       0       0       0       0
Total ram usage:        1 bytes
 Hardware stack levels used:    1
 Hardware stack levels required when called:    1
 This function calls:
		i1_EUSART_Write
 This function is called by:
		i1_fputc
 This function uses a non-reentrant model


 *************** function i1_EUSART_Write *****************
 Defined at:
		line 138 in file "mcc_generated_files/eusart.c"
 Parameters:    Size  Location     Type
  txData          1    wreg     unsigned char 
 Auto vars:     Size  Location     Type
  txData          1    0[COMMON] unsigned char 
 Return value:  Size  Location     Type
                  1    wreg      void 
 Registers used:
		wreg
 Tracked objects:
		On entry : 
		On exit  : 
		Unchanged: 
 Data sizes:     COMMON   BANK0   BANK1   BANK2   BANK3   BANK4   BANK5   BANK6   BANK7   BANK8   BANK9  BANK10  BANK11  BANK12  BANK13  BANK14  BANK15  BANK16  BANK17  BANK18  BANK19  BANK20  BANK21  BANK22  BANK23  BANK24  BANK25
      Params:         0       0       0       0       0       0       0       0       0       0       0       0       0       0       0       0       0       0       0       0       0       0       0       0       0       0       0
      Locals:         1       0       0       0       0       0       0       0       0       0       0       0       0       0       0       0       0       0       0       0       0       0       0       0       0       0       0
      Temps:          0       0       0       0       0       0       0       0       0       0       0       0       0       0       0       0       0       0       0       0       0       0       0       0       0       0       0
      Totals:         1       0       0       0       0       0       0       0       0       0       0       0       0       0       0       0       0       0       0       0       0       0       0       0       0       0       0
Total ram usage:        1 bytes
 Hardware stack levels used:    1
 This function calls:
		Nothing
 This function is called by:
		i1_putch
 This function uses a non-reentrant model



MODULE INFORMATION

Module		Function		Class		Link	Load	Size
fuel.c
		_fuel_percent_calculate		CODE           	1D3D	0000	55
		_fuel_low_check		CODE           	1E02	0000	73
		_fuel_init     		CODE           	1ADE	0000	35
		_fuel_pwm_calculate		CODE           	1D74	0000	69
		_fuel_get      		CODE           	1E9A	0000	83
		_fuel_calibration		CODE           	1EED	0000	86
		_fuel_get_corr 		CODE           	27DE	0000	17
		_is_fuel_low   		CODE           	2672	0000	4
		_fuel_set_low  		CODE           	18E5	0000	22
		_fuel_uint_to_float		CODE           	1BEE	0000	43
		_fuel_set_corr 		CODE           	1832	0000	18

fuel.c estimated size: 505

/opt/microchip/xc8/v2.31/pic/sources/c99/common/doprnt.c
		_vfpfcnvrt     		CODE           	0962	0000	265
		_pad           		CODE           	1F43	0000	94
		_dtoa          		CODE           	0B8D	0000	369
		_vfprintf      		CODE           	1D07	0000	54

/opt/microchip/xc8/v2.31/pic/sources/c99/common/doprnt.c estimated size: 782

mcc_generated_files/tmr6.c
		_TMR6_LoadPeriodRegister		CODE           	2699	0000	8
		_TMR6_Initialize		CODE           	2770	0000	12

mcc_generated_files/tmr6.c estimated size: 20

button.c
		_button_is_pressed		CODE           	26B3	0000	10
		_button_init   		CODE           	277C	0000	12
		_button_check  		CODE           	1047	0000	115

button.c estimated size: 137

mcc_generated_files/pwm6.c
		_PWM6_LoadDutyValue		CODE           	19B1	0000	27
		_PWM6_Initialize		CODE           	2758	0000	12

mcc_generated_files/pwm6.c estimated size: 39

mcc_generated_files/tmr4.c
		_TMR4_Initialize		CODE           	2764	0000	12

mcc_generated_files/tmr4.c estimated size: 12

/opt/microchip/xc8/v2.31/pic/sources/c99/common/abs.c
		_abs           		CODE           	1A04	0000	28

/opt/microchip/xc8/v2.31/pic/sources/c99/common/abs.c estimated size: 28

mcc_generated_files/tmr2.c
		_TMR2_ISR      		CODE           	187C	0000	20
		_TMR2_Initialize		CODE           	1890	0000	20
		_TMR2_SetInterruptHandler		CODE           	272A	0000	11
		_TMR2_DefaultInterruptHandler		CODE           	266F	0000	3

mcc_generated_files/tmr2.c estimated size: 54

mcc_generated_files/interrupt_manager.c
		_INTERRUPT_InterruptManager		CODE           	0004	0000	64

mcc_generated_files/interrupt_manager.c estimated size: 64

spd.c
		_spd_a_calibration		CODE           	1B71	0000	39
		_is_moving     		CODE           	2735	0000	11
		_spd_test_pwm  		CODE           	0806	0000	87
		_spd_init      		CODE           	11A4	0000	146
		_spd_uint_to_float		CODE           	1C19	0000	43
		_spd_adc_to_u8 		CODE           	2794	0000	12
		_spd_k_calibration		CODE           	1CA2	0000	50
		_spd_get_a_corr		CODE           	2676	0000	4
		_spd_get_k_corr		CODE           	1869	0000	19
		_spd_set_a_corr		CODE           	26AA	0000	9
		_spd_set_k_corr		CODE           	1844	0000	18
		_frequency_calculation		CODE           	1451	0000	215

spd.c estimated size: 653

/opt/microchip/xc8/v2.31/pic/sources/c99/common/nf_fputc.c
		_fputc         		CODE           	1DB9	0000	73

/opt/microchip/xc8/v2.31/pic/sources/c99/common/nf_fputc.c estimated size: 73

mcc_generated_files/tmr0.c
		_TMR0_SetInterruptHandler		CODE           	2714	0000	11
		_TMR0_Reload   		CODE           	26D2	0000	11
		_TMR0_DefaultInterruptHandler		CODE           	26C7	0000	11
		_TMR0_ISR      		CODE           	19CC	0000	28
		_TMR0_Initialize		CODE           	1A20	0000	29

mcc_generated_files/tmr0.c estimated size: 90

/opt/microchip/xc8/v2.31/pic/sources/c99/common/fleq.c
		___fleq        		CODE           	1E4B	0000	79

/opt/microchip/xc8/v2.31/pic/sources/c99/common/fleq.c estimated size: 79

/opt/microchip/xc8/v2.31/pic/sources/c99/common/puts.c
		_puts          		CODE           	1A99	0000	34

/opt/microchip/xc8/v2.31/pic/sources/c99/common/puts.c estimated size: 34

mcc_generated_files/pin_manager.c
		_PIN_MANAGER_Initialize		CODE           	1CD4	0000	51

mcc_generated_files/pin_manager.c estimated size: 51

mcc_generated_files/adc.c
		_ADC_Initialize		CODE           	26DD	0000	11
		_ADC_GetConversion		CODE           	1A3D	0000	29

mcc_generated_files/adc.c estimated size: 40

/opt/microchip/xc8/v2.31/pic/sources/c99/common/aomod.c
		___aomod       		CODE           	1612	0000	237

/opt/microchip/xc8/v2.31/pic/sources/c99/common/aomod.c estimated size: 237

eeprom.c
		_read_correction		CODE           	0E70	0000	400
		_write_correction		CODE           	0A6B	0000	290
		_eeprom_read_error_handler		CODE           	27AE	0000	15

eeprom.c estimated size: 705

/opt/microchip/xc8/v2.31/pic/sources/c99/common/printf.c
		_printf        		CODE           	18CF	0000	22

/opt/microchip/xc8/v2.31/pic/sources/c99/common/printf.c estimated size: 22

shared
		i1_printf      		CODE           	1856	0000	19
		i1_vfpfcnvrt   		CODE           	0709	0000	242
		i1_pad         		CODE           	1FA1	0000	95
		i1_abs         		CODE           	192C	0000	26
		i1_puts        		CODE           	1A5A	0000	30
		i1_putch       		CODE           	2681	0000	8
		i1_vfprintf    		CODE           	1C71	0000	49
		i1_led_set_mode		CODE           	2691	0000	8
		i1_EUSART_Write		CODE           	27A0	0000	14
		i1_is_moving   		CODE           	2740	0000	12
		i1__Umul8_16   		CODE           	1ABB	0000	35
		i1_dtoa        		CODE           	0CFE	0000	370
		i1___fltol     		CODE           	10BA	0000	117
		__initialization		CODE           	0046	0000	50
		i1_TMR6_LoadPeriodRegister		CODE           	267A	0000	7
		i1___aodiv     		CODE           	16FF	0000	257
		i1___flmul     		CODE           	02D3	0000	599
		i1___xxtofl    		CODE           	1236	0000	172
		i1___aomod     		CODE           	1528	0000	234
		i1_fputc       		CODE           	1001	0000	70
		i1_fputs       		CODE           	1B98	0000	43
		i1_strlen      		CODE           	1946	0000	26
		i1_PWM6_LoadDutyValue		CODE           	18FB	0000	24

shared estimated size: 2507

mcc_generated_files/pwm5.c
		_PWM5_LoadDutyValue		CODE           	1996	0000	27
		_PWM5_Initialize		CODE           	274C	0000	12

mcc_generated_files/pwm5.c estimated size: 39

mcc_generated_files/mcc.c
		_WDT_Initialize		CODE           	07FB	0000	5
		_PMD_Initialize		CODE           	27BD	0000	16
		_OSCILLATOR_Initialize		CODE           	2709	0000	11
		_SYSTEM_Initialize		CODE           	1C44	0000	45

mcc_generated_files/mcc.c estimated size: 77

mcc_generated_files/tmr3.c
		_TMR3_Initialize		CODE           	18A4	0000	21

mcc_generated_files/tmr3.c estimated size: 21

mcc_generated_files/tmr1.c
		_TMR1_Initialize		CODE           	1960	0000	27
		_TMR1_SetInterruptHandler		CODE           	271F	0000	11
		_TMR1_DefaultInterruptHandler		CODE           	266C	0000	3
		_TMR1_WriteTimer		CODE           	1913	0000	25
		_TMR1_ISR      		CODE           	19E8	0000	28

mcc_generated_files/tmr1.c estimated size: 94

/opt/microchip/xc8/v2.31/pic/sources/c99/common/xxtofl.c
		___xxtofl      		CODE           	12E2	0000	173

/opt/microchip/xc8/v2.31/pic/sources/c99/common/xxtofl.c estimated size: 173

mcc_generated_files/memory.c
		_FLASH_ReadWord		CODE           	1A78	0000	33
		_DATAEE_WriteByte		CODE           	1B25	0000	37
		_DATAEE_ReadByte		CODE           	1821	0000	17

mcc_generated_files/memory.c estimated size: 87

/opt/microchip/xc8/v2.31/pic/sources/c99/common/aodiv.c
		___aodiv       		CODE           	085D	0000	261

/opt/microchip/xc8/v2.31/pic/sources/c99/common/aodiv.c estimated size: 261

/opt/microchip/xc8/v2.31/pic/sources/c99/common/nf_fputs.c
		_fputs         		CODE           	1BC3	0000	43

/opt/microchip/xc8/v2.31/pic/sources/c99/common/nf_fputs.c estimated size: 43

/opt/microchip/xc8/v2.31/pic/sources/c99/common/strlen.c
		_strlen        		CODE           	197B	0000	27

/opt/microchip/xc8/v2.31/pic/sources/c99/common/strlen.c estimated size: 27

mcc_generated_files/eusart.c
		_putch         		CODE           	26A1	0000	9
		_EUSART_Write  		CODE           	27CD	0000	17
		_EUSART_Initialize		CODE           	1B4A	0000	39
		_EUSART_SetFramingErrorHandler		CODE           	26F3	0000	11
		_EUSART_SetErrorHandler		CODE           	26E8	0000	11
		_EUSART_SetOverrunErrorHandler		CODE           	26FE	0000	11

mcc_generated_files/eusart.c estimated size: 98

/opt/microchip/xc8/v2.31/pic/sources/c99/common/Umul8_16.c
		__Umul8_16     		CODE           	1B01	0000	36

/opt/microchip/xc8/v2.31/pic/sources/c99/common/Umul8_16.c estimated size: 36

main.c
		_menu_change   		CODE           	2788	0000	12
		_main          		CODE           	052A	0000	479

main.c estimated size: 491

/opt/microchip/xc8/v2.31/pic/sources/c99/common/fltol.c
		___fltol       		CODE           	112F	0000	117

/opt/microchip/xc8/v2.31/pic/sources/c99/common/fltol.c estimated size: 117

led.c
		_led_init      		CODE           	27EF	0000	17
		_led_off       		CODE           	181A	0000	7
		_led_set_mode  		CODE           	26BD	0000	10
		_led_indicate  		CODE           	138F	0000	194
		_led_on        		CODE           	2689	0000	8
		_led_toggle    		CODE           	18B9	0000	22

led.c estimated size: 258

/opt/microchip/xc8/v2.31/pic/sources/c99/common/sprcmul.c
		___flmul       		CODE           	007C	0000	599

/opt/microchip/xc8/v2.31/pic/sources/c99/common/sprcmul.c estimated size: 599

